
addi.elf:     file format elf32-littleriscv


Disassembly of section .riscv.attributes:

00000000 <.riscv.attributes>:
   0:	1941                	.2byte	0x1941
   2:	0000                	.2byte	0x0
   4:	7200                	.2byte	0x7200
   6:	7369                	.2byte	0x7369
   8:	01007663          	bgeu	zero,a6,14 <__start-0x7fffffec>
   c:	0000000f          	fence	unknown,unknown
  10:	7205                	.2byte	0x7205
  12:	3376                	.2byte	0x3376
  14:	6932                	.2byte	0x6932
  16:	7032                	.2byte	0x7032
  18:	0030                	.2byte	0x30

Disassembly of section .text:

80000000 <__start>:
80000000:	00100593          	li	a1,1
80000004:	00000093          	li	ra,0
80000008:	00008f13          	mv	t5,ra
8000000c:	00000e93          	li	t4,0
80000010:	27df1e63          	bne	t5,t4,8000028c <fail>

80000014 <test02>:
80000014:	00200593          	li	a1,2
80000018:	00100093          	li	ra,1
8000001c:	00108f13          	addi	t5,ra,1
80000020:	00200e93          	li	t4,2
80000024:	27df1463          	bne	t5,t4,8000028c <fail>

80000028 <test03>:
80000028:	00300593          	li	a1,3
8000002c:	00300093          	li	ra,3
80000030:	00708f13          	addi	t5,ra,7
80000034:	00a00e93          	li	t4,10
80000038:	25df1a63          	bne	t5,t4,8000028c <fail>

8000003c <test04>:
8000003c:	00400593          	li	a1,4
80000040:	00000093          	li	ra,0
80000044:	80008f13          	addi	t5,ra,-2048
80000048:	80000e93          	li	t4,-2048
8000004c:	25df1063          	bne	t5,t4,8000028c <fail>

80000050 <test05>:
80000050:	00500593          	li	a1,5
80000054:	800000b7          	lui	ra,0x80000
80000058:	00008f13          	mv	t5,ra
8000005c:	80000eb7          	lui	t4,0x80000
80000060:	23df1663          	bne	t5,t4,8000028c <fail>

80000064 <test06>:
80000064:	00600593          	li	a1,6
80000068:	800000b7          	lui	ra,0x80000
8000006c:	80008f13          	addi	t5,ra,-2048 # 7ffff800 <_end+0xffffe800>
80000070:	80000eb7          	lui	t4,0x80000
80000074:	800e8e93          	addi	t4,t4,-2048 # 7ffff800 <_end+0xffffe800>
80000078:	21df1a63          	bne	t5,t4,8000028c <fail>

8000007c <test07>:
8000007c:	00700593          	li	a1,7
80000080:	00000093          	li	ra,0
80000084:	7ff08f13          	addi	t5,ra,2047
80000088:	7ff00e93          	li	t4,2047
8000008c:	21df1063          	bne	t5,t4,8000028c <fail>

80000090 <test08>:
80000090:	00800593          	li	a1,8
80000094:	800000b7          	lui	ra,0x80000
80000098:	fff08093          	addi	ra,ra,-1 # 7fffffff <_end+0xffffefff>
8000009c:	00008f13          	mv	t5,ra
800000a0:	80000eb7          	lui	t4,0x80000
800000a4:	fffe8e93          	addi	t4,t4,-1 # 7fffffff <_end+0xffffefff>
800000a8:	1fdf1263          	bne	t5,t4,8000028c <fail>

800000ac <test09>:
800000ac:	00900593          	li	a1,9
800000b0:	800000b7          	lui	ra,0x80000
800000b4:	fff08093          	addi	ra,ra,-1 # 7fffffff <_end+0xffffefff>
800000b8:	7ff08f13          	addi	t5,ra,2047
800000bc:	80000eb7          	lui	t4,0x80000
800000c0:	7fee8e93          	addi	t4,t4,2046 # 800007fe <_end+0xfffff7fe>
800000c4:	1ddf1463          	bne	t5,t4,8000028c <fail>

800000c8 <test10>:
800000c8:	00a00593          	li	a1,10
800000cc:	800000b7          	lui	ra,0x80000
800000d0:	7ff08f13          	addi	t5,ra,2047 # 800007ff <_end+0xfffff7ff>
800000d4:	80000eb7          	lui	t4,0x80000
800000d8:	7ffe8e93          	addi	t4,t4,2047 # 800007ff <_end+0xfffff7ff>
800000dc:	1bdf1863          	bne	t5,t4,8000028c <fail>

800000e0 <test11>:
800000e0:	00b00593          	li	a1,11
800000e4:	800000b7          	lui	ra,0x80000
800000e8:	fff08093          	addi	ra,ra,-1 # 7fffffff <_end+0xffffefff>
800000ec:	80008f13          	addi	t5,ra,-2048
800000f0:	7ffffeb7          	lui	t4,0x7ffff
800000f4:	7ffe8e93          	addi	t4,t4,2047 # 7ffff7ff <__start-0x801>
800000f8:	19df1a63          	bne	t5,t4,8000028c <fail>

800000fc <test12>:
800000fc:	00c00593          	li	a1,12
80000100:	00000093          	li	ra,0
80000104:	fff08f13          	addi	t5,ra,-1
80000108:	fff00e93          	li	t4,-1
8000010c:	19df1063          	bne	t5,t4,8000028c <fail>

80000110 <test13>:
80000110:	00d00593          	li	a1,13
80000114:	fff00093          	li	ra,-1
80000118:	00108f13          	addi	t5,ra,1
8000011c:	00000e93          	li	t4,0
80000120:	17df1663          	bne	t5,t4,8000028c <fail>

80000124 <test14>:
80000124:	00e00593          	li	a1,14
80000128:	fff00093          	li	ra,-1
8000012c:	fff08f13          	addi	t5,ra,-1
80000130:	ffe00e93          	li	t4,-2
80000134:	15df1c63          	bne	t5,t4,8000028c <fail>

80000138 <test15>:
80000138:	00f00593          	li	a1,15
8000013c:	800000b7          	lui	ra,0x80000
80000140:	fff08093          	addi	ra,ra,-1 # 7fffffff <_end+0xffffefff>
80000144:	00108f13          	addi	t5,ra,1
80000148:	80000eb7          	lui	t4,0x80000
8000014c:	15df1063          	bne	t5,t4,8000028c <fail>

80000150 <test16>:
80000150:	01000593          	li	a1,16
80000154:	00d00093          	li	ra,13
80000158:	00b08093          	addi	ra,ra,11
8000015c:	01800e93          	li	t4,24
80000160:	13d09663          	bne	ra,t4,8000028c <fail>

80000164 <test17>:
80000164:	01100593          	li	a1,17
80000168:	00000213          	li	tp,0

8000016c <label1_test17>:
8000016c:	00d00093          	li	ra,13
80000170:	00b08f13          	addi	t5,ra,11
80000174:	000f0313          	mv	t1,t5
80000178:	00120213          	addi	tp,tp,1 # 1 <__start-0x7fffffff>
8000017c:	00200293          	li	t0,2
80000180:	fe5216e3          	bne	tp,t0,8000016c <label1_test17>
80000184:	01800e93          	li	t4,24
80000188:	11d31263          	bne	t1,t4,8000028c <fail>

8000018c <test18>:
8000018c:	01200593          	li	a1,18
80000190:	00000213          	li	tp,0

80000194 <label1_test18>:
80000194:	00d00093          	li	ra,13
80000198:	00a08f13          	addi	t5,ra,10
8000019c:	00000013          	nop
800001a0:	000f0313          	mv	t1,t5
800001a4:	00120213          	addi	tp,tp,1 # 1 <__start-0x7fffffff>
800001a8:	00200293          	li	t0,2
800001ac:	fe5214e3          	bne	tp,t0,80000194 <label1_test18>
800001b0:	01700e93          	li	t4,23
800001b4:	0dd31c63          	bne	t1,t4,8000028c <fail>

800001b8 <test19>:
800001b8:	01300593          	li	a1,19
800001bc:	00000213          	li	tp,0

800001c0 <label1_test19>:
800001c0:	00d00093          	li	ra,13
800001c4:	00908f13          	addi	t5,ra,9
800001c8:	00000013          	nop
800001cc:	00000013          	nop
800001d0:	000f0313          	mv	t1,t5
800001d4:	00120213          	addi	tp,tp,1 # 1 <__start-0x7fffffff>
800001d8:	00200293          	li	t0,2
800001dc:	fe5212e3          	bne	tp,t0,800001c0 <label1_test19>
800001e0:	01600e93          	li	t4,22
800001e4:	0bd31463          	bne	t1,t4,8000028c <fail>

800001e8 <test20>:
800001e8:	01400593          	li	a1,20
800001ec:	00000213          	li	tp,0

800001f0 <label1_test20>:
800001f0:	00d00093          	li	ra,13
800001f4:	00b08f13          	addi	t5,ra,11
800001f8:	00120213          	addi	tp,tp,1 # 1 <__start-0x7fffffff>
800001fc:	00200293          	li	t0,2
80000200:	fe5218e3          	bne	tp,t0,800001f0 <label1_test20>
80000204:	01800e93          	li	t4,24
80000208:	09df1263          	bne	t5,t4,8000028c <fail>

8000020c <test21>:
8000020c:	01500593          	li	a1,21
80000210:	00000213          	li	tp,0

80000214 <label1_test21>:
80000214:	00d00093          	li	ra,13
80000218:	00000013          	nop
8000021c:	00a08f13          	addi	t5,ra,10
80000220:	00120213          	addi	tp,tp,1 # 1 <__start-0x7fffffff>
80000224:	00200293          	li	t0,2
80000228:	fe5216e3          	bne	tp,t0,80000214 <label1_test21>
8000022c:	01700e93          	li	t4,23
80000230:	05df1e63          	bne	t5,t4,8000028c <fail>

80000234 <test22>:
80000234:	01600593          	li	a1,22
80000238:	00000213          	li	tp,0

8000023c <label1_test22>:
8000023c:	00d00093          	li	ra,13
80000240:	00000013          	nop
80000244:	00000013          	nop
80000248:	00908f13          	addi	t5,ra,9
8000024c:	00120213          	addi	tp,tp,1 # 1 <__start-0x7fffffff>
80000250:	00200293          	li	t0,2
80000254:	fe5214e3          	bne	tp,t0,8000023c <label1_test22>
80000258:	01600e93          	li	t4,22
8000025c:	03df1863          	bne	t5,t4,8000028c <fail>

80000260 <test23>:
80000260:	01700593          	li	a1,23
80000264:	02000093          	li	ra,32
80000268:	02000e93          	li	t4,32
8000026c:	03d09063          	bne	ra,t4,8000028c <fail>

80000270 <test24>:
80000270:	01800593          	li	a1,24
80000274:	02100093          	li	ra,33
80000278:	03208013          	addi	zero,ra,50
8000027c:	00000e93          	li	t4,0
80000280:	01d01663          	bne	zero,t4,8000028c <fail>

80000284 <success>:
80000284:	00a00513          	li	a0,10
80000288:	00000073          	ecall

8000028c <fail>:
8000028c:	01100513          	li	a0,17
80000290:	00000073          	ecall
