
addi.elf:     file format elf32-littleriscv


Disassembly of section .text:

00400000 <__start>:
  400000:	00100593          	li	a1,1
  400004:	00000093          	li	ra,0
  400008:	00008f13          	mv	t5,ra
  40000c:	00000e93          	li	t4,0
  400010:	27df1e63          	bne	t5,t4,40028c <fail>

00400014 <test02>:
  400014:	00200593          	li	a1,2
  400018:	00100093          	li	ra,1
  40001c:	00108f13          	addi	t5,ra,1
  400020:	00200e93          	li	t4,2
  400024:	27df1463          	bne	t5,t4,40028c <fail>

00400028 <test03>:
  400028:	00300593          	li	a1,3
  40002c:	00300093          	li	ra,3
  400030:	00708f13          	addi	t5,ra,7
  400034:	00a00e93          	li	t4,10
  400038:	25df1a63          	bne	t5,t4,40028c <fail>

0040003c <test04>:
  40003c:	00400593          	li	a1,4
  400040:	00000093          	li	ra,0
  400044:	80008f13          	addi	t5,ra,-2048
  400048:	80000e93          	li	t4,-2048
  40004c:	25df1063          	bne	t5,t4,40028c <fail>

00400050 <test05>:
  400050:	00500593          	li	a1,5
  400054:	800000b7          	lui	ra,0x80000
  400058:	00008f13          	mv	t5,ra
  40005c:	80000eb7          	lui	t4,0x80000
  400060:	23df1663          	bne	t5,t4,40028c <fail>

00400064 <test06>:
  400064:	00600593          	li	a1,6
  400068:	800000b7          	lui	ra,0x80000
  40006c:	80008f13          	addi	t5,ra,-2048 # 7ffff800 <_end+0x7fbfe800>
  400070:	80000eb7          	lui	t4,0x80000
  400074:	800e8e93          	addi	t4,t4,-2048 # 7ffff800 <_end+0x7fbfe800>
  400078:	21df1a63          	bne	t5,t4,40028c <fail>

0040007c <test07>:
  40007c:	00700593          	li	a1,7
  400080:	00000093          	li	ra,0
  400084:	7ff08f13          	addi	t5,ra,2047
  400088:	7ff00e93          	li	t4,2047
  40008c:	21df1063          	bne	t5,t4,40028c <fail>

00400090 <test08>:
  400090:	00800593          	li	a1,8
  400094:	800000b7          	lui	ra,0x80000
  400098:	fff08093          	addi	ra,ra,-1 # 7fffffff <_end+0x7fbfefff>
  40009c:	00008f13          	mv	t5,ra
  4000a0:	80000eb7          	lui	t4,0x80000
  4000a4:	fffe8e93          	addi	t4,t4,-1 # 7fffffff <_end+0x7fbfefff>
  4000a8:	1fdf1263          	bne	t5,t4,40028c <fail>

004000ac <test09>:
  4000ac:	00900593          	li	a1,9
  4000b0:	800000b7          	lui	ra,0x80000
  4000b4:	fff08093          	addi	ra,ra,-1 # 7fffffff <_end+0x7fbfefff>
  4000b8:	7ff08f13          	addi	t5,ra,2047
  4000bc:	80000eb7          	lui	t4,0x80000
  4000c0:	7fee8e93          	addi	t4,t4,2046 # 800007fe <_end+0x7fbff7fe>
  4000c4:	1ddf1463          	bne	t5,t4,40028c <fail>

004000c8 <test10>:
  4000c8:	00a00593          	li	a1,10
  4000cc:	800000b7          	lui	ra,0x80000
  4000d0:	7ff08f13          	addi	t5,ra,2047 # 800007ff <_end+0x7fbff7ff>
  4000d4:	80000eb7          	lui	t4,0x80000
  4000d8:	7ffe8e93          	addi	t4,t4,2047 # 800007ff <_end+0x7fbff7ff>
  4000dc:	1bdf1863          	bne	t5,t4,40028c <fail>

004000e0 <test11>:
  4000e0:	00b00593          	li	a1,11
  4000e4:	800000b7          	lui	ra,0x80000
  4000e8:	fff08093          	addi	ra,ra,-1 # 7fffffff <_end+0x7fbfefff>
  4000ec:	80008f13          	addi	t5,ra,-2048
  4000f0:	7ffffeb7          	lui	t4,0x7ffff
  4000f4:	7ffe8e93          	addi	t4,t4,2047 # 7ffff7ff <_end+0x7fbfe7ff>
  4000f8:	19df1a63          	bne	t5,t4,40028c <fail>

004000fc <test12>:
  4000fc:	00c00593          	li	a1,12
  400100:	00000093          	li	ra,0
  400104:	fff08f13          	addi	t5,ra,-1
  400108:	fff00e93          	li	t4,-1
  40010c:	19df1063          	bne	t5,t4,40028c <fail>

00400110 <test13>:
  400110:	00d00593          	li	a1,13
  400114:	fff00093          	li	ra,-1
  400118:	00108f13          	addi	t5,ra,1
  40011c:	00000e93          	li	t4,0
  400120:	17df1663          	bne	t5,t4,40028c <fail>

00400124 <test14>:
  400124:	00e00593          	li	a1,14
  400128:	fff00093          	li	ra,-1
  40012c:	fff08f13          	addi	t5,ra,-1
  400130:	ffe00e93          	li	t4,-2
  400134:	15df1c63          	bne	t5,t4,40028c <fail>

00400138 <test15>:
  400138:	00f00593          	li	a1,15
  40013c:	800000b7          	lui	ra,0x80000
  400140:	fff08093          	addi	ra,ra,-1 # 7fffffff <_end+0x7fbfefff>
  400144:	00108f13          	addi	t5,ra,1
  400148:	80000eb7          	lui	t4,0x80000
  40014c:	15df1063          	bne	t5,t4,40028c <fail>

00400150 <test16>:
  400150:	01000593          	li	a1,16
  400154:	00d00093          	li	ra,13
  400158:	00b08093          	addi	ra,ra,11
  40015c:	01800e93          	li	t4,24
  400160:	13d09663          	bne	ra,t4,40028c <fail>

00400164 <test17>:
  400164:	01100593          	li	a1,17
  400168:	00000213          	li	tp,0

0040016c <label1_test17>:
  40016c:	00d00093          	li	ra,13
  400170:	00b08f13          	addi	t5,ra,11
  400174:	000f0313          	mv	t1,t5
  400178:	00120213          	addi	tp,tp,1 # 1 <__start-0x3fffff>
  40017c:	00200293          	li	t0,2
  400180:	fe5216e3          	bne	tp,t0,40016c <label1_test17>
  400184:	01800e93          	li	t4,24
  400188:	11d31263          	bne	t1,t4,40028c <fail>

0040018c <test18>:
  40018c:	01200593          	li	a1,18
  400190:	00000213          	li	tp,0

00400194 <label1_test18>:
  400194:	00d00093          	li	ra,13
  400198:	00a08f13          	addi	t5,ra,10
  40019c:	00000013          	nop
  4001a0:	000f0313          	mv	t1,t5
  4001a4:	00120213          	addi	tp,tp,1 # 1 <__start-0x3fffff>
  4001a8:	00200293          	li	t0,2
  4001ac:	fe5214e3          	bne	tp,t0,400194 <label1_test18>
  4001b0:	01700e93          	li	t4,23
  4001b4:	0dd31c63          	bne	t1,t4,40028c <fail>

004001b8 <test19>:
  4001b8:	01300593          	li	a1,19
  4001bc:	00000213          	li	tp,0

004001c0 <label1_test19>:
  4001c0:	00d00093          	li	ra,13
  4001c4:	00908f13          	addi	t5,ra,9
  4001c8:	00000013          	nop
  4001cc:	00000013          	nop
  4001d0:	000f0313          	mv	t1,t5
  4001d4:	00120213          	addi	tp,tp,1 # 1 <__start-0x3fffff>
  4001d8:	00200293          	li	t0,2
  4001dc:	fe5212e3          	bne	tp,t0,4001c0 <label1_test19>
  4001e0:	01600e93          	li	t4,22
  4001e4:	0bd31463          	bne	t1,t4,40028c <fail>

004001e8 <test20>:
  4001e8:	01400593          	li	a1,20
  4001ec:	00000213          	li	tp,0

004001f0 <label1_test20>:
  4001f0:	00d00093          	li	ra,13
  4001f4:	00b08f13          	addi	t5,ra,11
  4001f8:	00120213          	addi	tp,tp,1 # 1 <__start-0x3fffff>
  4001fc:	00200293          	li	t0,2
  400200:	fe5218e3          	bne	tp,t0,4001f0 <label1_test20>
  400204:	01800e93          	li	t4,24
  400208:	09df1263          	bne	t5,t4,40028c <fail>

0040020c <test21>:
  40020c:	01500593          	li	a1,21
  400210:	00000213          	li	tp,0

00400214 <label1_test21>:
  400214:	00d00093          	li	ra,13
  400218:	00000013          	nop
  40021c:	00a08f13          	addi	t5,ra,10
  400220:	00120213          	addi	tp,tp,1 # 1 <__start-0x3fffff>
  400224:	00200293          	li	t0,2
  400228:	fe5216e3          	bne	tp,t0,400214 <label1_test21>
  40022c:	01700e93          	li	t4,23
  400230:	05df1e63          	bne	t5,t4,40028c <fail>

00400234 <test22>:
  400234:	01600593          	li	a1,22
  400238:	00000213          	li	tp,0

0040023c <label1_test22>:
  40023c:	00d00093          	li	ra,13
  400240:	00000013          	nop
  400244:	00000013          	nop
  400248:	00908f13          	addi	t5,ra,9
  40024c:	00120213          	addi	tp,tp,1 # 1 <__start-0x3fffff>
  400250:	00200293          	li	t0,2
  400254:	fe5214e3          	bne	tp,t0,40023c <label1_test22>
  400258:	01600e93          	li	t4,22
  40025c:	03df1863          	bne	t5,t4,40028c <fail>

00400260 <test23>:
  400260:	01700593          	li	a1,23
  400264:	02000093          	li	ra,32
  400268:	02000e93          	li	t4,32
  40026c:	03d09063          	bne	ra,t4,40028c <fail>

00400270 <test24>:
  400270:	01800593          	li	a1,24
  400274:	02100093          	li	ra,33
  400278:	03208013          	addi	zero,ra,50
  40027c:	00000e93          	li	t4,0
  400280:	01d01663          	bne	zero,t4,40028c <fail>

00400284 <success>:
  400284:	00a00513          	li	a0,10
  400288:	00000073          	ecall

0040028c <fail>:
  40028c:	01100513          	li	a0,17
  400290:	00000073          	ecall
