
bge.elf:     file format elf32-littleriscv


Disassembly of section .text:

00400000 <__start>:
  400000:	00100593          	li	a1,1
  400004:	00000093          	li	ra,0
  400008:	00000113          	li	sp,0
  40000c:	0020d663          	bge	ra,sp,400018 <label2_test01>
  400010:	2eb01463          	bne	zero,a1,4002f8 <fail>

00400014 <label1_test01>:
  400014:	00b01663          	bne	zero,a1,400020 <label3_test01>

00400018 <label2_test01>:
  400018:	fe20dee3          	bge	ra,sp,400014 <label1_test01>
  40001c:	2cb01e63          	bne	zero,a1,4002f8 <fail>

00400020 <label3_test01>:
  400020:	00200593          	li	a1,2
  400024:	00100093          	li	ra,1
  400028:	00100113          	li	sp,1
  40002c:	0020d663          	bge	ra,sp,400038 <label2_test02>
  400030:	2cb01463          	bne	zero,a1,4002f8 <fail>

00400034 <label1_test02>:
  400034:	00b01663          	bne	zero,a1,400040 <label3_test02>

00400038 <label2_test02>:
  400038:	fe20dee3          	bge	ra,sp,400034 <label1_test02>
  40003c:	2ab01e63          	bne	zero,a1,4002f8 <fail>

00400040 <label3_test02>:
  400040:	00300593          	li	a1,3
  400044:	fff00093          	li	ra,-1
  400048:	fff00113          	li	sp,-1
  40004c:	0020d663          	bge	ra,sp,400058 <label2_test03>
  400050:	2ab01463          	bne	zero,a1,4002f8 <fail>

00400054 <label1_test03>:
  400054:	00b01663          	bne	zero,a1,400060 <label3_test03>

00400058 <label2_test03>:
  400058:	fe20dee3          	bge	ra,sp,400054 <label1_test03>
  40005c:	28b01e63          	bne	zero,a1,4002f8 <fail>

00400060 <label3_test03>:
  400060:	00400593          	li	a1,4
  400064:	00100093          	li	ra,1
  400068:	00000113          	li	sp,0
  40006c:	0020d663          	bge	ra,sp,400078 <label2_test04>
  400070:	28b01463          	bne	zero,a1,4002f8 <fail>

00400074 <label1_test04>:
  400074:	00b01663          	bne	zero,a1,400080 <label3_test04>

00400078 <label2_test04>:
  400078:	fe20dee3          	bge	ra,sp,400074 <label1_test04>
  40007c:	26b01e63          	bne	zero,a1,4002f8 <fail>

00400080 <label3_test04>:
  400080:	00500593          	li	a1,5
  400084:	00100093          	li	ra,1
  400088:	fff00113          	li	sp,-1
  40008c:	0020d663          	bge	ra,sp,400098 <label2_test05>
  400090:	26b01463          	bne	zero,a1,4002f8 <fail>

00400094 <label1_test05>:
  400094:	00b01663          	bne	zero,a1,4000a0 <label3_test05>

00400098 <label2_test05>:
  400098:	fe20dee3          	bge	ra,sp,400094 <label1_test05>
  40009c:	24b01e63          	bne	zero,a1,4002f8 <fail>

004000a0 <label3_test05>:
  4000a0:	00600593          	li	a1,6
  4000a4:	fff00093          	li	ra,-1
  4000a8:	ffe00113          	li	sp,-2
  4000ac:	0020d663          	bge	ra,sp,4000b8 <label2_test06>
  4000b0:	24b01463          	bne	zero,a1,4002f8 <fail>

004000b4 <label1_test06>:
  4000b4:	00b01663          	bne	zero,a1,4000c0 <label3_test06>

004000b8 <label2_test06>:
  4000b8:	fe20dee3          	bge	ra,sp,4000b4 <label1_test06>
  4000bc:	22b01e63          	bne	zero,a1,4002f8 <fail>

004000c0 <label3_test06>:
  4000c0:	00700593          	li	a1,7
  4000c4:	00000093          	li	ra,0
  4000c8:	00100113          	li	sp,1
  4000cc:	0020d463          	bge	ra,sp,4000d4 <label1_test07>
  4000d0:	00b01463          	bne	zero,a1,4000d8 <label2_test07>

004000d4 <label1_test07>:
  4000d4:	22b01263          	bne	zero,a1,4002f8 <fail>

004000d8 <label2_test07>:
  4000d8:	fe20dee3          	bge	ra,sp,4000d4 <label1_test07>

004000dc <label3_test07>:
  4000dc:	00800593          	li	a1,8
  4000e0:	fff00093          	li	ra,-1
  4000e4:	00100113          	li	sp,1
  4000e8:	0020d463          	bge	ra,sp,4000f0 <label1_test08>
  4000ec:	00b01463          	bne	zero,a1,4000f4 <label2_test08>

004000f0 <label1_test08>:
  4000f0:	20b01463          	bne	zero,a1,4002f8 <fail>

004000f4 <label2_test08>:
  4000f4:	fe20dee3          	bge	ra,sp,4000f0 <label1_test08>

004000f8 <label3_test08>:
  4000f8:	00900593          	li	a1,9
  4000fc:	ffe00093          	li	ra,-2
  400100:	fff00113          	li	sp,-1
  400104:	0020d463          	bge	ra,sp,40010c <label1_test09>
  400108:	00b01463          	bne	zero,a1,400110 <label2_test09>

0040010c <label1_test09>:
  40010c:	1eb01663          	bne	zero,a1,4002f8 <fail>

00400110 <label2_test09>:
  400110:	fe20dee3          	bge	ra,sp,40010c <label1_test09>

00400114 <label3_test09>:
  400114:	00a00593          	li	a1,10
  400118:	ffe00093          	li	ra,-2
  40011c:	00100113          	li	sp,1
  400120:	0020d463          	bge	ra,sp,400128 <label1_test10>
  400124:	00b01463          	bne	zero,a1,40012c <label2_test10>

00400128 <label1_test10>:
  400128:	1cb01863          	bne	zero,a1,4002f8 <fail>

0040012c <label2_test10>:
  40012c:	fe20dee3          	bge	ra,sp,400128 <label1_test10>

00400130 <label3_test10>:
  400130:	00b00593          	li	a1,11
  400134:	00000213          	li	tp,0

00400138 <label1_test11>:
  400138:	fff00093          	li	ra,-1
  40013c:	00000113          	li	sp,0
  400140:	1a20dc63          	bge	ra,sp,4002f8 <fail>
  400144:	00120213          	addi	tp,tp,1 # 1 <__start-0x3fffff>
  400148:	00200293          	li	t0,2
  40014c:	fe5216e3          	bne	tp,t0,400138 <label1_test11>

00400150 <test12>:
  400150:	00c00593          	li	a1,12
  400154:	00000213          	li	tp,0

00400158 <label1_test12>:
  400158:	fff00093          	li	ra,-1
  40015c:	00000113          	li	sp,0
  400160:	00000013          	nop
  400164:	1820da63          	bge	ra,sp,4002f8 <fail>
  400168:	00120213          	addi	tp,tp,1 # 1 <__start-0x3fffff>
  40016c:	00200293          	li	t0,2
  400170:	fe5214e3          	bne	tp,t0,400158 <label1_test12>

00400174 <test13>:
  400174:	00d00593          	li	a1,13
  400178:	00000213          	li	tp,0

0040017c <label1_test13>:
  40017c:	fff00093          	li	ra,-1
  400180:	00000113          	li	sp,0
  400184:	00000013          	nop
  400188:	00000013          	nop
  40018c:	1620d663          	bge	ra,sp,4002f8 <fail>
  400190:	00120213          	addi	tp,tp,1 # 1 <__start-0x3fffff>
  400194:	00200293          	li	t0,2
  400198:	fe5212e3          	bne	tp,t0,40017c <label1_test13>

0040019c <test14>:
  40019c:	00e00593          	li	a1,14
  4001a0:	00000213          	li	tp,0

004001a4 <label1_test14>:
  4001a4:	fff00093          	li	ra,-1
  4001a8:	00000013          	nop
  4001ac:	00000113          	li	sp,0
  4001b0:	1420d463          	bge	ra,sp,4002f8 <fail>
  4001b4:	00120213          	addi	tp,tp,1 # 1 <__start-0x3fffff>
  4001b8:	00200293          	li	t0,2
  4001bc:	fe5214e3          	bne	tp,t0,4001a4 <label1_test14>

004001c0 <test15>:
  4001c0:	00f00593          	li	a1,15
  4001c4:	00000213          	li	tp,0

004001c8 <label1_test15>:
  4001c8:	fff00093          	li	ra,-1
  4001cc:	00000013          	nop
  4001d0:	00000113          	li	sp,0
  4001d4:	00000013          	nop
  4001d8:	1220d063          	bge	ra,sp,4002f8 <fail>
  4001dc:	00120213          	addi	tp,tp,1 # 1 <__start-0x3fffff>
  4001e0:	00200293          	li	t0,2
  4001e4:	fe5212e3          	bne	tp,t0,4001c8 <label1_test15>

004001e8 <test16>:
  4001e8:	01000593          	li	a1,16
  4001ec:	00000213          	li	tp,0

004001f0 <label1_test16>:
  4001f0:	fff00093          	li	ra,-1
  4001f4:	00000013          	nop
  4001f8:	00000013          	nop
  4001fc:	00000113          	li	sp,0
  400200:	0e20dc63          	bge	ra,sp,4002f8 <fail>
  400204:	00120213          	addi	tp,tp,1 # 1 <__start-0x3fffff>
  400208:	00200293          	li	t0,2
  40020c:	fe5212e3          	bne	tp,t0,4001f0 <label1_test16>

00400210 <test17>:
  400210:	01100593          	li	a1,17
  400214:	00000213          	li	tp,0

00400218 <label1_test17>:
  400218:	fff00093          	li	ra,-1
  40021c:	00000113          	li	sp,0
  400220:	0c20dc63          	bge	ra,sp,4002f8 <fail>
  400224:	00120213          	addi	tp,tp,1 # 1 <__start-0x3fffff>
  400228:	00200293          	li	t0,2
  40022c:	fe5216e3          	bne	tp,t0,400218 <label1_test17>

00400230 <test18>:
  400230:	01200593          	li	a1,18
  400234:	00000213          	li	tp,0

00400238 <label1_test18>:
  400238:	fff00093          	li	ra,-1
  40023c:	00000113          	li	sp,0
  400240:	00000013          	nop
  400244:	0a20da63          	bge	ra,sp,4002f8 <fail>
  400248:	00120213          	addi	tp,tp,1 # 1 <__start-0x3fffff>
  40024c:	00200293          	li	t0,2
  400250:	fe5214e3          	bne	tp,t0,400238 <label1_test18>

00400254 <test19>:
  400254:	01300593          	li	a1,19
  400258:	00000213          	li	tp,0

0040025c <label1_test19>:
  40025c:	fff00093          	li	ra,-1
  400260:	00000113          	li	sp,0
  400264:	00000013          	nop
  400268:	00000013          	nop
  40026c:	0820d663          	bge	ra,sp,4002f8 <fail>
  400270:	00120213          	addi	tp,tp,1 # 1 <__start-0x3fffff>
  400274:	00200293          	li	t0,2
  400278:	fe5212e3          	bne	tp,t0,40025c <label1_test19>

0040027c <test20>:
  40027c:	01400593          	li	a1,20
  400280:	00000213          	li	tp,0

00400284 <label1_test20>:
  400284:	fff00093          	li	ra,-1
  400288:	00000013          	nop
  40028c:	00000113          	li	sp,0
  400290:	0620d463          	bge	ra,sp,4002f8 <fail>
  400294:	00120213          	addi	tp,tp,1 # 1 <__start-0x3fffff>
  400298:	00200293          	li	t0,2
  40029c:	fe5214e3          	bne	tp,t0,400284 <label1_test20>

004002a0 <test21>:
  4002a0:	01500593          	li	a1,21
  4002a4:	00000213          	li	tp,0

004002a8 <label1_test21>:
  4002a8:	fff00093          	li	ra,-1
  4002ac:	00000013          	nop
  4002b0:	00000113          	li	sp,0
  4002b4:	00000013          	nop
  4002b8:	0420d063          	bge	ra,sp,4002f8 <fail>
  4002bc:	00120213          	addi	tp,tp,1 # 1 <__start-0x3fffff>
  4002c0:	00200293          	li	t0,2
  4002c4:	fe5212e3          	bne	tp,t0,4002a8 <label1_test21>

004002c8 <test22>:
  4002c8:	01600593          	li	a1,22
  4002cc:	00000213          	li	tp,0

004002d0 <label1_test22>:
  4002d0:	fff00093          	li	ra,-1
  4002d4:	00000013          	nop
  4002d8:	00000013          	nop
  4002dc:	00000113          	li	sp,0
  4002e0:	0020dc63          	bge	ra,sp,4002f8 <fail>
  4002e4:	00120213          	addi	tp,tp,1 # 1 <__start-0x3fffff>
  4002e8:	00200293          	li	t0,2
  4002ec:	fe5212e3          	bne	tp,t0,4002d0 <label1_test22>

004002f0 <success>:
  4002f0:	00a00513          	li	a0,10
  4002f4:	00000073          	ecall

004002f8 <fail>:
  4002f8:	01100513          	li	a0,17
  4002fc:	00000073          	ecall
