
lhu.elf:     file format elf32-littleriscv


Disassembly of section .data:

80001000 <tdat>:
80001000:	00ff                	.2byte	0xff

80001002 <tdat2>:
80001002:	ff00                	.2byte	0xff00

80001004 <tdat3>:
80001004:	0ff0                	.2byte	0xff0

80001006 <tdat4>:
80001006:	0f f0   	Address 0x0000000080001006 is out of bounds.

8000100a:	 

Disassembly of section .riscv.attributes:

00000000 <.riscv.attributes>:
   0:	1941                	.2byte	0x1941
   2:	0000                	.2byte	0x0
   4:	7200                	.2byte	0x7200
   6:	7369                	.2byte	0x7369
   8:	01007663          	bgeu	zero,a6,14 <__start-0x7fffffec>
   c:	0000000f          	fence	unknown,unknown
  10:	7205                	.2byte	0x7205
  12:	3376                	.2byte	0x3376
  14:	6932                	.2byte	0x6932
  16:	7032                	.2byte	0x7032
  18:	0030                	.2byte	0x30

Disassembly of section .text:

80000000 <__start>:
80000000:	00100593          	li	a1,1
80000004:	00001097          	auipc	ra,0x1
80000008:	ffc08093          	addi	ra,ra,-4 # 80001000 <tdat>
8000000c:	0000df03          	lhu	t5,0(ra)
80000010:	0ff00e93          	li	t4,255
80000014:	27df1863          	bne	t5,t4,80000284 <fail>

80000018 <test02>:
80000018:	00200593          	li	a1,2
8000001c:	00001097          	auipc	ra,0x1
80000020:	fe408093          	addi	ra,ra,-28 # 80001000 <tdat>
80000024:	0020df03          	lhu	t5,2(ra)
80000028:	00010eb7          	lui	t4,0x10
8000002c:	f00e8e93          	addi	t4,t4,-256 # ff00 <__start-0x7fff0100>
80000030:	25df1a63          	bne	t5,t4,80000284 <fail>

80000034 <test03>:
80000034:	00300593          	li	a1,3
80000038:	00001097          	auipc	ra,0x1
8000003c:	fc808093          	addi	ra,ra,-56 # 80001000 <tdat>
80000040:	0040df03          	lhu	t5,4(ra)
80000044:	00001eb7          	lui	t4,0x1
80000048:	ff0e8e93          	addi	t4,t4,-16 # ff0 <__start-0x7ffff010>
8000004c:	23df1c63          	bne	t5,t4,80000284 <fail>

80000050 <test04>:
80000050:	00400593          	li	a1,4
80000054:	00001097          	auipc	ra,0x1
80000058:	fac08093          	addi	ra,ra,-84 # 80001000 <tdat>
8000005c:	0060df03          	lhu	t5,6(ra)
80000060:	0000feb7          	lui	t4,0xf
80000064:	00fe8e93          	addi	t4,t4,15 # f00f <__start-0x7fff0ff1>
80000068:	21df1e63          	bne	t5,t4,80000284 <fail>

8000006c <test05>:
8000006c:	00500593          	li	a1,5
80000070:	00001097          	auipc	ra,0x1
80000074:	f9608093          	addi	ra,ra,-106 # 80001006 <tdat4>
80000078:	ffa0df03          	lhu	t5,-6(ra)
8000007c:	0ff00e93          	li	t4,255
80000080:	21df1263          	bne	t5,t4,80000284 <fail>

80000084 <test06>:
80000084:	00600593          	li	a1,6
80000088:	00001097          	auipc	ra,0x1
8000008c:	f7e08093          	addi	ra,ra,-130 # 80001006 <tdat4>
80000090:	ffc0df03          	lhu	t5,-4(ra)
80000094:	00010eb7          	lui	t4,0x10
80000098:	f00e8e93          	addi	t4,t4,-256 # ff00 <__start-0x7fff0100>
8000009c:	1fdf1463          	bne	t5,t4,80000284 <fail>

800000a0 <test07>:
800000a0:	00700593          	li	a1,7
800000a4:	00001097          	auipc	ra,0x1
800000a8:	f6208093          	addi	ra,ra,-158 # 80001006 <tdat4>
800000ac:	ffe0df03          	lhu	t5,-2(ra)
800000b0:	00001eb7          	lui	t4,0x1
800000b4:	ff0e8e93          	addi	t4,t4,-16 # ff0 <__start-0x7ffff010>
800000b8:	1ddf1663          	bne	t5,t4,80000284 <fail>

800000bc <test08>:
800000bc:	00800593          	li	a1,8
800000c0:	00001097          	auipc	ra,0x1
800000c4:	f4608093          	addi	ra,ra,-186 # 80001006 <tdat4>
800000c8:	0000df03          	lhu	t5,0(ra)
800000cc:	0000feb7          	lui	t4,0xf
800000d0:	00fe8e93          	addi	t4,t4,15 # f00f <__start-0x7fff0ff1>
800000d4:	1bdf1863          	bne	t5,t4,80000284 <fail>

800000d8 <test09>:
800000d8:	00900593          	li	a1,9
800000dc:	00001097          	auipc	ra,0x1
800000e0:	f2408093          	addi	ra,ra,-220 # 80001000 <tdat>
800000e4:	fe008093          	addi	ra,ra,-32
800000e8:	0200d283          	lhu	t0,32(ra)
800000ec:	0ff00e93          	li	t4,255
800000f0:	19d29a63          	bne	t0,t4,80000284 <fail>

800000f4 <test10>:
800000f4:	00a00593          	li	a1,10
800000f8:	00001097          	auipc	ra,0x1
800000fc:	f0808093          	addi	ra,ra,-248 # 80001000 <tdat>
80000100:	ffb08093          	addi	ra,ra,-5
80000104:	0070d283          	lhu	t0,7(ra)
80000108:	00010eb7          	lui	t4,0x10
8000010c:	f00e8e93          	addi	t4,t4,-256 # ff00 <__start-0x7fff0100>
80000110:	17d29a63          	bne	t0,t4,80000284 <fail>

80000114 <test11>:
80000114:	00b00593          	li	a1,11
80000118:	00000213          	li	tp,0

8000011c <label1_test11>:
8000011c:	00001097          	auipc	ra,0x1
80000120:	ee608093          	addi	ra,ra,-282 # 80001002 <tdat2>
80000124:	0020df03          	lhu	t5,2(ra)
80000128:	000f0313          	mv	t1,t5
8000012c:	00001eb7          	lui	t4,0x1
80000130:	ff0e8e93          	addi	t4,t4,-16 # ff0 <__start-0x7ffff010>
80000134:	15d31863          	bne	t1,t4,80000284 <fail>
80000138:	00120213          	addi	tp,tp,1 # 1 <__start-0x7fffffff>
8000013c:	00200293          	li	t0,2
80000140:	fc521ee3          	bne	tp,t0,8000011c <label1_test11>

80000144 <test12>:
80000144:	00c00593          	li	a1,12
80000148:	00000213          	li	tp,0

8000014c <label1_test12>:
8000014c:	00001097          	auipc	ra,0x1
80000150:	eb808093          	addi	ra,ra,-328 # 80001004 <tdat3>
80000154:	0020df03          	lhu	t5,2(ra)
80000158:	00000013          	nop
8000015c:	000f0313          	mv	t1,t5
80000160:	0000feb7          	lui	t4,0xf
80000164:	00fe8e93          	addi	t4,t4,15 # f00f <__start-0x7fff0ff1>
80000168:	11d31e63          	bne	t1,t4,80000284 <fail>
8000016c:	00120213          	addi	tp,tp,1 # 1 <__start-0x7fffffff>
80000170:	00200293          	li	t0,2
80000174:	fc521ce3          	bne	tp,t0,8000014c <label1_test12>

80000178 <test13>:
80000178:	00d00593          	li	a1,13
8000017c:	00000213          	li	tp,0

80000180 <label1_test13>:
80000180:	00001097          	auipc	ra,0x1
80000184:	e8008093          	addi	ra,ra,-384 # 80001000 <tdat>
80000188:	0020df03          	lhu	t5,2(ra)
8000018c:	00000013          	nop
80000190:	00000013          	nop
80000194:	000f0313          	mv	t1,t5
80000198:	00010eb7          	lui	t4,0x10
8000019c:	f00e8e93          	addi	t4,t4,-256 # ff00 <__start-0x7fff0100>
800001a0:	0fd31263          	bne	t1,t4,80000284 <fail>
800001a4:	00120213          	addi	tp,tp,1 # 1 <__start-0x7fffffff>
800001a8:	00200293          	li	t0,2
800001ac:	fc521ae3          	bne	tp,t0,80000180 <label1_test13>

800001b0 <test14>:
800001b0:	00e00593          	li	a1,14
800001b4:	00000213          	li	tp,0

800001b8 <label1_test14>:
800001b8:	00001097          	auipc	ra,0x1
800001bc:	e4a08093          	addi	ra,ra,-438 # 80001002 <tdat2>
800001c0:	0020df03          	lhu	t5,2(ra)
800001c4:	00001eb7          	lui	t4,0x1
800001c8:	ff0e8e93          	addi	t4,t4,-16 # ff0 <__start-0x7ffff010>
800001cc:	0bdf1c63          	bne	t5,t4,80000284 <fail>
800001d0:	00120213          	addi	tp,tp,1 # 1 <__start-0x7fffffff>
800001d4:	00200293          	li	t0,2
800001d8:	fe5210e3          	bne	tp,t0,800001b8 <label1_test14>

800001dc <test15>:
800001dc:	00f00593          	li	a1,15
800001e0:	00000213          	li	tp,0

800001e4 <label1_test15>:
800001e4:	00001097          	auipc	ra,0x1
800001e8:	e2008093          	addi	ra,ra,-480 # 80001004 <tdat3>
800001ec:	00000013          	nop
800001f0:	0020df03          	lhu	t5,2(ra)
800001f4:	0000feb7          	lui	t4,0xf
800001f8:	00fe8e93          	addi	t4,t4,15 # f00f <__start-0x7fff0ff1>
800001fc:	09df1463          	bne	t5,t4,80000284 <fail>
80000200:	00120213          	addi	tp,tp,1 # 1 <__start-0x7fffffff>
80000204:	00200293          	li	t0,2
80000208:	fc521ee3          	bne	tp,t0,800001e4 <label1_test15>

8000020c <test16>:
8000020c:	01000593          	li	a1,16
80000210:	00000213          	li	tp,0

80000214 <label1_test16>:
80000214:	00001097          	auipc	ra,0x1
80000218:	dec08093          	addi	ra,ra,-532 # 80001000 <tdat>
8000021c:	00000013          	nop
80000220:	00000013          	nop
80000224:	0020df03          	lhu	t5,2(ra)
80000228:	00010eb7          	lui	t4,0x10
8000022c:	f00e8e93          	addi	t4,t4,-256 # ff00 <__start-0x7fff0100>
80000230:	05df1a63          	bne	t5,t4,80000284 <fail>
80000234:	00120213          	addi	tp,tp,1 # 1 <__start-0x7fffffff>
80000238:	00200293          	li	t0,2
8000023c:	fc521ce3          	bne	tp,t0,80000214 <label1_test16>

80000240 <test17>:
80000240:	01100593          	li	a1,17
80000244:	00001297          	auipc	t0,0x1
80000248:	dbc28293          	addi	t0,t0,-580 # 80001000 <tdat>
8000024c:	0002d103          	lhu	sp,0(t0)
80000250:	00200113          	li	sp,2
80000254:	00200e93          	li	t4,2
80000258:	03d11663          	bne	sp,t4,80000284 <fail>

8000025c <test18>:
8000025c:	01200593          	li	a1,18
80000260:	00001297          	auipc	t0,0x1
80000264:	da028293          	addi	t0,t0,-608 # 80001000 <tdat>
80000268:	0002d103          	lhu	sp,0(t0)
8000026c:	00000013          	nop
80000270:	00200113          	li	sp,2
80000274:	00200e93          	li	t4,2
80000278:	01d11663          	bne	sp,t4,80000284 <fail>

8000027c <success>:
8000027c:	00a00513          	li	a0,10
80000280:	00000073          	ecall

80000284 <fail>:
80000284:	01100513          	li	a0,17
80000288:	00000073          	ecall
