
lw.elf:     file format elf32-littleriscv


Disassembly of section .text:

00400000 <__start>:
  400000:	00100593          	li	a1,1
  400004:	00001097          	auipc	ra,0x1
  400008:	ffc08093          	addi	ra,ra,-4 # 401000 <tdat>
  40000c:	0000af03          	lw	t5,0(ra)
  400010:	00ff0eb7          	lui	t4,0xff0
  400014:	0ffe8e93          	addi	t4,t4,255 # ff00ff <_end+0xbee0ff>
  400018:	27df1c63          	bne	t5,t4,400290 <fail>

0040001c <test02>:
  40001c:	00200593          	li	a1,2
  400020:	00001097          	auipc	ra,0x1
  400024:	fe008093          	addi	ra,ra,-32 # 401000 <tdat>
  400028:	0040af03          	lw	t5,4(ra)
  40002c:	ff010eb7          	lui	t4,0xff010
  400030:	f00e8e93          	addi	t4,t4,-256 # ff00ff00 <_end+0xfec0df00>
  400034:	25df1e63          	bne	t5,t4,400290 <fail>

00400038 <test03>:
  400038:	00300593          	li	a1,3
  40003c:	00001097          	auipc	ra,0x1
  400040:	fc408093          	addi	ra,ra,-60 # 401000 <tdat>
  400044:	0080af03          	lw	t5,8(ra)
  400048:	0ff01eb7          	lui	t4,0xff01
  40004c:	ff0e8e93          	addi	t4,t4,-16 # ff00ff0 <_end+0xfafeff0>
  400050:	25df1063          	bne	t5,t4,400290 <fail>

00400054 <test04>:
  400054:	00400593          	li	a1,4
  400058:	00001097          	auipc	ra,0x1
  40005c:	fa808093          	addi	ra,ra,-88 # 401000 <tdat>
  400060:	00c0af03          	lw	t5,12(ra)
  400064:	f00ffeb7          	lui	t4,0xf00ff
  400068:	00fe8e93          	addi	t4,t4,15 # f00ff00f <_end+0xefcfd00f>
  40006c:	23df1263          	bne	t5,t4,400290 <fail>

00400070 <test05>:
  400070:	00500593          	li	a1,5
  400074:	00001097          	auipc	ra,0x1
  400078:	f9808093          	addi	ra,ra,-104 # 40100c <tdat4>
  40007c:	ff40af03          	lw	t5,-12(ra)
  400080:	00ff0eb7          	lui	t4,0xff0
  400084:	0ffe8e93          	addi	t4,t4,255 # ff00ff <_end+0xbee0ff>
  400088:	21df1463          	bne	t5,t4,400290 <fail>

0040008c <test06>:
  40008c:	00600593          	li	a1,6
  400090:	00001097          	auipc	ra,0x1
  400094:	f7c08093          	addi	ra,ra,-132 # 40100c <tdat4>
  400098:	ff80af03          	lw	t5,-8(ra)
  40009c:	ff010eb7          	lui	t4,0xff010
  4000a0:	f00e8e93          	addi	t4,t4,-256 # ff00ff00 <_end+0xfec0df00>
  4000a4:	1fdf1663          	bne	t5,t4,400290 <fail>

004000a8 <test07>:
  4000a8:	00700593          	li	a1,7
  4000ac:	00001097          	auipc	ra,0x1
  4000b0:	f6008093          	addi	ra,ra,-160 # 40100c <tdat4>
  4000b4:	ffc0af03          	lw	t5,-4(ra)
  4000b8:	0ff01eb7          	lui	t4,0xff01
  4000bc:	ff0e8e93          	addi	t4,t4,-16 # ff00ff0 <_end+0xfafeff0>
  4000c0:	1ddf1863          	bne	t5,t4,400290 <fail>

004000c4 <test08>:
  4000c4:	00800593          	li	a1,8
  4000c8:	00001097          	auipc	ra,0x1
  4000cc:	f4408093          	addi	ra,ra,-188 # 40100c <tdat4>
  4000d0:	0000af03          	lw	t5,0(ra)
  4000d4:	f00ffeb7          	lui	t4,0xf00ff
  4000d8:	00fe8e93          	addi	t4,t4,15 # f00ff00f <_end+0xefcfd00f>
  4000dc:	1bdf1a63          	bne	t5,t4,400290 <fail>

004000e0 <test09>:
  4000e0:	00900593          	li	a1,9
  4000e4:	00001097          	auipc	ra,0x1
  4000e8:	f1c08093          	addi	ra,ra,-228 # 401000 <tdat>
  4000ec:	fe008093          	addi	ra,ra,-32
  4000f0:	0200a283          	lw	t0,32(ra)
  4000f4:	00ff0eb7          	lui	t4,0xff0
  4000f8:	0ffe8e93          	addi	t4,t4,255 # ff00ff <_end+0xbee0ff>
  4000fc:	19d29a63          	bne	t0,t4,400290 <fail>

00400100 <test10>:
  400100:	00a00593          	li	a1,10
  400104:	00001097          	auipc	ra,0x1
  400108:	efc08093          	addi	ra,ra,-260 # 401000 <tdat>
  40010c:	ffd08093          	addi	ra,ra,-3
  400110:	0070a283          	lw	t0,7(ra)
  400114:	ff010eb7          	lui	t4,0xff010
  400118:	f00e8e93          	addi	t4,t4,-256 # ff00ff00 <_end+0xfec0df00>
  40011c:	17d29a63          	bne	t0,t4,400290 <fail>

00400120 <test11>:
  400120:	00b00593          	li	a1,11
  400124:	00000213          	li	tp,0

00400128 <label1_test11>:
  400128:	00001097          	auipc	ra,0x1
  40012c:	edc08093          	addi	ra,ra,-292 # 401004 <tdat2>
  400130:	0040af03          	lw	t5,4(ra)
  400134:	000f0313          	mv	t1,t5
  400138:	0ff01eb7          	lui	t4,0xff01
  40013c:	ff0e8e93          	addi	t4,t4,-16 # ff00ff0 <_end+0xfafeff0>
  400140:	15d31863          	bne	t1,t4,400290 <fail>
  400144:	00120213          	addi	tp,tp,1 # 1 <__start-0x3fffff>
  400148:	00200293          	li	t0,2
  40014c:	fc521ee3          	bne	tp,t0,400128 <label1_test11>

00400150 <test12>:
  400150:	00c00593          	li	a1,12
  400154:	00000213          	li	tp,0

00400158 <label1_test12>:
  400158:	00001097          	auipc	ra,0x1
  40015c:	eb008093          	addi	ra,ra,-336 # 401008 <tdat3>
  400160:	0040af03          	lw	t5,4(ra)
  400164:	00000013          	nop
  400168:	000f0313          	mv	t1,t5
  40016c:	f00ffeb7          	lui	t4,0xf00ff
  400170:	00fe8e93          	addi	t4,t4,15 # f00ff00f <_end+0xefcfd00f>
  400174:	11d31e63          	bne	t1,t4,400290 <fail>
  400178:	00120213          	addi	tp,tp,1 # 1 <__start-0x3fffff>
  40017c:	00200293          	li	t0,2
  400180:	fc521ce3          	bne	tp,t0,400158 <label1_test12>

00400184 <test13>:
  400184:	00d00593          	li	a1,13
  400188:	00000213          	li	tp,0

0040018c <label1_test13>:
  40018c:	00001097          	auipc	ra,0x1
  400190:	e7408093          	addi	ra,ra,-396 # 401000 <tdat>
  400194:	0040af03          	lw	t5,4(ra)
  400198:	00000013          	nop
  40019c:	00000013          	nop
  4001a0:	000f0313          	mv	t1,t5
  4001a4:	ff010eb7          	lui	t4,0xff010
  4001a8:	f00e8e93          	addi	t4,t4,-256 # ff00ff00 <_end+0xfec0df00>
  4001ac:	0fd31263          	bne	t1,t4,400290 <fail>
  4001b0:	00120213          	addi	tp,tp,1 # 1 <__start-0x3fffff>
  4001b4:	00200293          	li	t0,2
  4001b8:	fc521ae3          	bne	tp,t0,40018c <label1_test13>

004001bc <test14>:
  4001bc:	00e00593          	li	a1,14
  4001c0:	00000213          	li	tp,0

004001c4 <label1_test14>:
  4001c4:	00001097          	auipc	ra,0x1
  4001c8:	e4008093          	addi	ra,ra,-448 # 401004 <tdat2>
  4001cc:	0040af03          	lw	t5,4(ra)
  4001d0:	0ff01eb7          	lui	t4,0xff01
  4001d4:	ff0e8e93          	addi	t4,t4,-16 # ff00ff0 <_end+0xfafeff0>
  4001d8:	0bdf1c63          	bne	t5,t4,400290 <fail>
  4001dc:	00120213          	addi	tp,tp,1 # 1 <__start-0x3fffff>
  4001e0:	00200293          	li	t0,2
  4001e4:	fe5210e3          	bne	tp,t0,4001c4 <label1_test14>

004001e8 <test15>:
  4001e8:	00f00593          	li	a1,15
  4001ec:	00000213          	li	tp,0

004001f0 <label1_test15>:
  4001f0:	00001097          	auipc	ra,0x1
  4001f4:	e1808093          	addi	ra,ra,-488 # 401008 <tdat3>
  4001f8:	00000013          	nop
  4001fc:	0040af03          	lw	t5,4(ra)
  400200:	f00ffeb7          	lui	t4,0xf00ff
  400204:	00fe8e93          	addi	t4,t4,15 # f00ff00f <_end+0xefcfd00f>
  400208:	09df1463          	bne	t5,t4,400290 <fail>
  40020c:	00120213          	addi	tp,tp,1 # 1 <__start-0x3fffff>
  400210:	00200293          	li	t0,2
  400214:	fc521ee3          	bne	tp,t0,4001f0 <label1_test15>

00400218 <test16>:
  400218:	01000593          	li	a1,16
  40021c:	00000213          	li	tp,0

00400220 <label1_test16>:
  400220:	00001097          	auipc	ra,0x1
  400224:	de008093          	addi	ra,ra,-544 # 401000 <tdat>
  400228:	00000013          	nop
  40022c:	00000013          	nop
  400230:	0040af03          	lw	t5,4(ra)
  400234:	ff010eb7          	lui	t4,0xff010
  400238:	f00e8e93          	addi	t4,t4,-256 # ff00ff00 <_end+0xfec0df00>
  40023c:	05df1a63          	bne	t5,t4,400290 <fail>
  400240:	00120213          	addi	tp,tp,1 # 1 <__start-0x3fffff>
  400244:	00200293          	li	t0,2
  400248:	fc521ce3          	bne	tp,t0,400220 <label1_test16>

0040024c <test17>:
  40024c:	01100593          	li	a1,17
  400250:	00001297          	auipc	t0,0x1
  400254:	db028293          	addi	t0,t0,-592 # 401000 <tdat>
  400258:	0002a103          	lw	sp,0(t0)
  40025c:	00200113          	li	sp,2
  400260:	00200e93          	li	t4,2
  400264:	03d11663          	bne	sp,t4,400290 <fail>

00400268 <test18>:
  400268:	01200593          	li	a1,18
  40026c:	00001297          	auipc	t0,0x1
  400270:	d9428293          	addi	t0,t0,-620 # 401000 <tdat>
  400274:	0002a103          	lw	sp,0(t0)
  400278:	00000013          	nop
  40027c:	00200113          	li	sp,2
  400280:	00200e93          	li	t4,2
  400284:	01d11663          	bne	sp,t4,400290 <fail>

00400288 <success>:
  400288:	00a00513          	li	a0,10
  40028c:	00000073          	ecall

00400290 <fail>:
  400290:	01100513          	li	a0,17
  400294:	00000073          	ecall
