
or.elf:     file format elf32-littleriscv


Disassembly of section .text:

00400000 <__start>:
  400000:	00100593          	li	a1,1
  400004:	ff0100b7          	lui	ra,0xff010
  400008:	f0008093          	addi	ra,ra,-256 # ff00ff00 <_end+0xfec0ef00>
  40000c:	0f0f1137          	lui	sp,0xf0f1
  400010:	f0f10113          	addi	sp,sp,-241 # f0f0f0f <_end+0xeceff0f>
  400014:	0020ef33          	or	t5,ra,sp
  400018:	ff100eb7          	lui	t4,0xff100
  40001c:	f0fe8e93          	addi	t4,t4,-241 # ff0fff0f <_end+0xfecfef0f>
  400020:	4ddf1c63          	bne	t5,t4,4004f8 <fail>

00400024 <test02>:
  400024:	00200593          	li	a1,2
  400028:	0ff010b7          	lui	ra,0xff01
  40002c:	ff008093          	addi	ra,ra,-16 # ff00ff0 <_end+0xfaffff0>
  400030:	f0f0f137          	lui	sp,0xf0f0f
  400034:	0f010113          	addi	sp,sp,240 # f0f0f0f0 <_end+0xf0b0e0f0>
  400038:	0020ef33          	or	t5,ra,sp
  40003c:	fff10eb7          	lui	t4,0xfff10
  400040:	ff0e8e93          	addi	t4,t4,-16 # fff0fff0 <_end+0xffb0eff0>
  400044:	4bdf1a63          	bne	t5,t4,4004f8 <fail>

00400048 <test03>:
  400048:	00300593          	li	a1,3
  40004c:	00ff00b7          	lui	ra,0xff0
  400050:	0ff08093          	addi	ra,ra,255 # ff00ff <_end+0xbef0ff>
  400054:	0f0f1137          	lui	sp,0xf0f1
  400058:	f0f10113          	addi	sp,sp,-241 # f0f0f0f <_end+0xeceff0f>
  40005c:	0020ef33          	or	t5,ra,sp
  400060:	0fff1eb7          	lui	t4,0xfff1
  400064:	fffe8e93          	addi	t4,t4,-1 # fff0fff <_end+0xfbeffff>
  400068:	49df1863          	bne	t5,t4,4004f8 <fail>

0040006c <test04>:
  40006c:	00400593          	li	a1,4
  400070:	f00ff0b7          	lui	ra,0xf00ff
  400074:	00f08093          	addi	ra,ra,15 # f00ff00f <_end+0xefcfe00f>
  400078:	f0f0f137          	lui	sp,0xf0f0f
  40007c:	0f010113          	addi	sp,sp,240 # f0f0f0f0 <_end+0xf0b0e0f0>
  400080:	0020ef33          	or	t5,ra,sp
  400084:	f0fffeb7          	lui	t4,0xf0fff
  400088:	0ffe8e93          	addi	t4,t4,255 # f0fff0ff <_end+0xf0bfe0ff>
  40008c:	47df1663          	bne	t5,t4,4004f8 <fail>

00400090 <test05>:
  400090:	00500593          	li	a1,5
  400094:	ff0100b7          	lui	ra,0xff010
  400098:	f0008093          	addi	ra,ra,-256 # ff00ff00 <_end+0xfec0ef00>
  40009c:	0f0f1137          	lui	sp,0xf0f1
  4000a0:	f0f10113          	addi	sp,sp,-241 # f0f0f0f <_end+0xeceff0f>
  4000a4:	0020e0b3          	or	ra,ra,sp
  4000a8:	ff100eb7          	lui	t4,0xff100
  4000ac:	f0fe8e93          	addi	t4,t4,-241 # ff0fff0f <_end+0xfecfef0f>
  4000b0:	45d09463          	bne	ra,t4,4004f8 <fail>

004000b4 <test06>:
  4000b4:	00600593          	li	a1,6
  4000b8:	ff0100b7          	lui	ra,0xff010
  4000bc:	f0008093          	addi	ra,ra,-256 # ff00ff00 <_end+0xfec0ef00>
  4000c0:	0f0f1137          	lui	sp,0xf0f1
  4000c4:	f0f10113          	addi	sp,sp,-241 # f0f0f0f <_end+0xeceff0f>
  4000c8:	0020e133          	or	sp,ra,sp
  4000cc:	ff100eb7          	lui	t4,0xff100
  4000d0:	f0fe8e93          	addi	t4,t4,-241 # ff0fff0f <_end+0xfecfef0f>
  4000d4:	43d11263          	bne	sp,t4,4004f8 <fail>

004000d8 <test07>:
  4000d8:	00700593          	li	a1,7
  4000dc:	ff0100b7          	lui	ra,0xff010
  4000e0:	f0008093          	addi	ra,ra,-256 # ff00ff00 <_end+0xfec0ef00>
  4000e4:	0010e0b3          	or	ra,ra,ra
  4000e8:	ff010eb7          	lui	t4,0xff010
  4000ec:	f00e8e93          	addi	t4,t4,-256 # ff00ff00 <_end+0xfec0ef00>
  4000f0:	41d09463          	bne	ra,t4,4004f8 <fail>

004000f4 <test08>:
  4000f4:	00800593          	li	a1,8
  4000f8:	00000213          	li	tp,0

004000fc <label_test08>:
  4000fc:	ff0100b7          	lui	ra,0xff010
  400100:	f0008093          	addi	ra,ra,-256 # ff00ff00 <_end+0xfec0ef00>
  400104:	0f0f1137          	lui	sp,0xf0f1
  400108:	f0f10113          	addi	sp,sp,-241 # f0f0f0f <_end+0xeceff0f>
  40010c:	0020ef33          	or	t5,ra,sp
  400110:	000f0313          	mv	t1,t5
  400114:	00120213          	addi	tp,tp,1 # 1 <__start-0x3fffff>
  400118:	00200293          	li	t0,2
  40011c:	fe5210e3          	bne	tp,t0,4000fc <label_test08>
  400120:	ff100eb7          	lui	t4,0xff100
  400124:	f0fe8e93          	addi	t4,t4,-241 # ff0fff0f <_end+0xfecfef0f>
  400128:	3dd31863          	bne	t1,t4,4004f8 <fail>

0040012c <test09>:
  40012c:	00900593          	li	a1,9
  400130:	00000213          	li	tp,0

00400134 <label_test09>:
  400134:	0ff010b7          	lui	ra,0xff01
  400138:	ff008093          	addi	ra,ra,-16 # ff00ff0 <_end+0xfaffff0>
  40013c:	f0f0f137          	lui	sp,0xf0f0f
  400140:	0f010113          	addi	sp,sp,240 # f0f0f0f0 <_end+0xf0b0e0f0>
  400144:	0020ef33          	or	t5,ra,sp
  400148:	00000013          	nop
  40014c:	000f0313          	mv	t1,t5
  400150:	00120213          	addi	tp,tp,1 # 1 <__start-0x3fffff>
  400154:	00200293          	li	t0,2
  400158:	fc521ee3          	bne	tp,t0,400134 <label_test09>
  40015c:	fff10eb7          	lui	t4,0xfff10
  400160:	ff0e8e93          	addi	t4,t4,-16 # fff0fff0 <_end+0xffb0eff0>
  400164:	39d31a63          	bne	t1,t4,4004f8 <fail>

00400168 <test10>:
  400168:	00a00593          	li	a1,10
  40016c:	00000213          	li	tp,0

00400170 <label_test10>:
  400170:	00ff00b7          	lui	ra,0xff0
  400174:	0ff08093          	addi	ra,ra,255 # ff00ff <_end+0xbef0ff>
  400178:	0f0f1137          	lui	sp,0xf0f1
  40017c:	f0f10113          	addi	sp,sp,-241 # f0f0f0f <_end+0xeceff0f>
  400180:	0020ef33          	or	t5,ra,sp
  400184:	00000013          	nop
  400188:	00000013          	nop
  40018c:	000f0313          	mv	t1,t5
  400190:	00120213          	addi	tp,tp,1 # 1 <__start-0x3fffff>
  400194:	00200293          	li	t0,2
  400198:	fc521ce3          	bne	tp,t0,400170 <label_test10>
  40019c:	0fff1eb7          	lui	t4,0xfff1
  4001a0:	fffe8e93          	addi	t4,t4,-1 # fff0fff <_end+0xfbeffff>
  4001a4:	35d31a63          	bne	t1,t4,4004f8 <fail>

004001a8 <test11>:
  4001a8:	00b00593          	li	a1,11
  4001ac:	00000213          	li	tp,0

004001b0 <label_test11>:
  4001b0:	ff0100b7          	lui	ra,0xff010
  4001b4:	f0008093          	addi	ra,ra,-256 # ff00ff00 <_end+0xfec0ef00>
  4001b8:	0f0f1137          	lui	sp,0xf0f1
  4001bc:	f0f10113          	addi	sp,sp,-241 # f0f0f0f <_end+0xeceff0f>
  4001c0:	0020ef33          	or	t5,ra,sp
  4001c4:	000f0313          	mv	t1,t5
  4001c8:	00120213          	addi	tp,tp,1 # 1 <__start-0x3fffff>
  4001cc:	00200293          	li	t0,2
  4001d0:	fe5210e3          	bne	tp,t0,4001b0 <label_test11>
  4001d4:	ff100eb7          	lui	t4,0xff100
  4001d8:	f0fe8e93          	addi	t4,t4,-241 # ff0fff0f <_end+0xfecfef0f>
  4001dc:	31d31e63          	bne	t1,t4,4004f8 <fail>

004001e0 <test12>:
  4001e0:	00c00593          	li	a1,12
  4001e4:	00000213          	li	tp,0

004001e8 <label_test12>:
  4001e8:	0ff010b7          	lui	ra,0xff01
  4001ec:	ff008093          	addi	ra,ra,-16 # ff00ff0 <_end+0xfaffff0>
  4001f0:	f0f0f137          	lui	sp,0xf0f0f
  4001f4:	0f010113          	addi	sp,sp,240 # f0f0f0f0 <_end+0xf0b0e0f0>
  4001f8:	00000013          	nop
  4001fc:	0020ef33          	or	t5,ra,sp
  400200:	000f0313          	mv	t1,t5
  400204:	00120213          	addi	tp,tp,1 # 1 <__start-0x3fffff>
  400208:	00200293          	li	t0,2
  40020c:	fc521ee3          	bne	tp,t0,4001e8 <label_test12>
  400210:	fff10eb7          	lui	t4,0xfff10
  400214:	ff0e8e93          	addi	t4,t4,-16 # fff0fff0 <_end+0xffb0eff0>
  400218:	2fd31063          	bne	t1,t4,4004f8 <fail>

0040021c <test13>:
  40021c:	00d00593          	li	a1,13
  400220:	00000213          	li	tp,0

00400224 <label_test13>:
  400224:	00ff00b7          	lui	ra,0xff0
  400228:	0ff08093          	addi	ra,ra,255 # ff00ff <_end+0xbef0ff>
  40022c:	0f0f1137          	lui	sp,0xf0f1
  400230:	f0f10113          	addi	sp,sp,-241 # f0f0f0f <_end+0xeceff0f>
  400234:	00000013          	nop
  400238:	00000013          	nop
  40023c:	0020ef33          	or	t5,ra,sp
  400240:	000f0313          	mv	t1,t5
  400244:	00120213          	addi	tp,tp,1 # 1 <__start-0x3fffff>
  400248:	00200293          	li	t0,2
  40024c:	fc521ce3          	bne	tp,t0,400224 <label_test13>
  400250:	0fff1eb7          	lui	t4,0xfff1
  400254:	fffe8e93          	addi	t4,t4,-1 # fff0fff <_end+0xfbeffff>
  400258:	2bd31063          	bne	t1,t4,4004f8 <fail>

0040025c <test14>:
  40025c:	00e00593          	li	a1,14
  400260:	00000213          	li	tp,0

00400264 <label_test14>:
  400264:	ff0100b7          	lui	ra,0xff010
  400268:	f0008093          	addi	ra,ra,-256 # ff00ff00 <_end+0xfec0ef00>
  40026c:	00000013          	nop
  400270:	0f0f1137          	lui	sp,0xf0f1
  400274:	f0f10113          	addi	sp,sp,-241 # f0f0f0f <_end+0xeceff0f>
  400278:	0020ef33          	or	t5,ra,sp
  40027c:	000f0313          	mv	t1,t5
  400280:	00120213          	addi	tp,tp,1 # 1 <__start-0x3fffff>
  400284:	00200293          	li	t0,2
  400288:	fc521ee3          	bne	tp,t0,400264 <label_test14>
  40028c:	ff100eb7          	lui	t4,0xff100
  400290:	f0fe8e93          	addi	t4,t4,-241 # ff0fff0f <_end+0xfecfef0f>
  400294:	27d31263          	bne	t1,t4,4004f8 <fail>

00400298 <test15>:
  400298:	00f00593          	li	a1,15
  40029c:	00000213          	li	tp,0

004002a0 <label_test15>:
  4002a0:	0ff010b7          	lui	ra,0xff01
  4002a4:	ff008093          	addi	ra,ra,-16 # ff00ff0 <_end+0xfaffff0>
  4002a8:	00000013          	nop
  4002ac:	f0f0f137          	lui	sp,0xf0f0f
  4002b0:	0f010113          	addi	sp,sp,240 # f0f0f0f0 <_end+0xf0b0e0f0>
  4002b4:	00000013          	nop
  4002b8:	0020ef33          	or	t5,ra,sp
  4002bc:	000f0313          	mv	t1,t5
  4002c0:	00120213          	addi	tp,tp,1 # 1 <__start-0x3fffff>
  4002c4:	00200293          	li	t0,2
  4002c8:	fc521ce3          	bne	tp,t0,4002a0 <label_test15>
  4002cc:	fff10eb7          	lui	t4,0xfff10
  4002d0:	ff0e8e93          	addi	t4,t4,-16 # fff0fff0 <_end+0xffb0eff0>
  4002d4:	23d31263          	bne	t1,t4,4004f8 <fail>

004002d8 <test16>:
  4002d8:	01000593          	li	a1,16
  4002dc:	00000213          	li	tp,0

004002e0 <label_test16>:
  4002e0:	00ff00b7          	lui	ra,0xff0
  4002e4:	0ff08093          	addi	ra,ra,255 # ff00ff <_end+0xbef0ff>
  4002e8:	00000013          	nop
  4002ec:	00000013          	nop
  4002f0:	0f0f1137          	lui	sp,0xf0f1
  4002f4:	f0f10113          	addi	sp,sp,-241 # f0f0f0f <_end+0xeceff0f>
  4002f8:	0020ef33          	or	t5,ra,sp
  4002fc:	000f0313          	mv	t1,t5
  400300:	00120213          	addi	tp,tp,1 # 1 <__start-0x3fffff>
  400304:	00200293          	li	t0,2
  400308:	fc521ce3          	bne	tp,t0,4002e0 <label_test16>
  40030c:	0fff1eb7          	lui	t4,0xfff1
  400310:	fffe8e93          	addi	t4,t4,-1 # fff0fff <_end+0xfbeffff>
  400314:	1fd31263          	bne	t1,t4,4004f8 <fail>

00400318 <test17>:
  400318:	01100593          	li	a1,17
  40031c:	00000213          	li	tp,0

00400320 <label_test17>:
  400320:	0f0f1137          	lui	sp,0xf0f1
  400324:	f0f10113          	addi	sp,sp,-241 # f0f0f0f <_end+0xeceff0f>
  400328:	ff0100b7          	lui	ra,0xff010
  40032c:	f0008093          	addi	ra,ra,-256 # ff00ff00 <_end+0xfec0ef00>
  400330:	0020ef33          	or	t5,ra,sp
  400334:	000f0313          	mv	t1,t5
  400338:	00120213          	addi	tp,tp,1 # 1 <__start-0x3fffff>
  40033c:	00200293          	li	t0,2
  400340:	fe5210e3          	bne	tp,t0,400320 <label_test17>
  400344:	ff100eb7          	lui	t4,0xff100
  400348:	f0fe8e93          	addi	t4,t4,-241 # ff0fff0f <_end+0xfecfef0f>
  40034c:	1bd31663          	bne	t1,t4,4004f8 <fail>

00400350 <test18>:
  400350:	01200593          	li	a1,18
  400354:	00000213          	li	tp,0

00400358 <label_test18>:
  400358:	f0f0f137          	lui	sp,0xf0f0f
  40035c:	0f010113          	addi	sp,sp,240 # f0f0f0f0 <_end+0xf0b0e0f0>
  400360:	00000013          	nop
  400364:	0ff010b7          	lui	ra,0xff01
  400368:	ff008093          	addi	ra,ra,-16 # ff00ff0 <_end+0xfaffff0>
  40036c:	0020ef33          	or	t5,ra,sp
  400370:	000f0313          	mv	t1,t5
  400374:	00120213          	addi	tp,tp,1 # 1 <__start-0x3fffff>
  400378:	00200293          	li	t0,2
  40037c:	fc521ee3          	bne	tp,t0,400358 <label_test18>
  400380:	fff10eb7          	lui	t4,0xfff10
  400384:	ff0e8e93          	addi	t4,t4,-16 # fff0fff0 <_end+0xffb0eff0>
  400388:	17d31863          	bne	t1,t4,4004f8 <fail>

0040038c <test19>:
  40038c:	01300593          	li	a1,19
  400390:	00000213          	li	tp,0

00400394 <label_test19>:
  400394:	0f0f1137          	lui	sp,0xf0f1
  400398:	f0f10113          	addi	sp,sp,-241 # f0f0f0f <_end+0xeceff0f>
  40039c:	00000013          	nop
  4003a0:	00000013          	nop
  4003a4:	00ff00b7          	lui	ra,0xff0
  4003a8:	0ff08093          	addi	ra,ra,255 # ff00ff <_end+0xbef0ff>
  4003ac:	0020ef33          	or	t5,ra,sp
  4003b0:	000f0313          	mv	t1,t5
  4003b4:	00120213          	addi	tp,tp,1 # 1 <__start-0x3fffff>
  4003b8:	00200293          	li	t0,2
  4003bc:	fc521ce3          	bne	tp,t0,400394 <label_test19>
  4003c0:	0fff1eb7          	lui	t4,0xfff1
  4003c4:	fffe8e93          	addi	t4,t4,-1 # fff0fff <_end+0xfbeffff>
  4003c8:	13d31863          	bne	t1,t4,4004f8 <fail>

004003cc <test20>:
  4003cc:	01400593          	li	a1,20
  4003d0:	00000213          	li	tp,0

004003d4 <label_test20>:
  4003d4:	0f0f1137          	lui	sp,0xf0f1
  4003d8:	f0f10113          	addi	sp,sp,-241 # f0f0f0f <_end+0xeceff0f>
  4003dc:	ff0100b7          	lui	ra,0xff010
  4003e0:	f0008093          	addi	ra,ra,-256 # ff00ff00 <_end+0xfec0ef00>
  4003e4:	00000013          	nop
  4003e8:	0020ef33          	or	t5,ra,sp
  4003ec:	000f0313          	mv	t1,t5
  4003f0:	00120213          	addi	tp,tp,1 # 1 <__start-0x3fffff>
  4003f4:	00200293          	li	t0,2
  4003f8:	fc521ee3          	bne	tp,t0,4003d4 <label_test20>
  4003fc:	ff100eb7          	lui	t4,0xff100
  400400:	f0fe8e93          	addi	t4,t4,-241 # ff0fff0f <_end+0xfecfef0f>
  400404:	0fd31a63          	bne	t1,t4,4004f8 <fail>

00400408 <test21>:
  400408:	01500593          	li	a1,21
  40040c:	00000213          	li	tp,0

00400410 <label_test21>:
  400410:	f0f0f137          	lui	sp,0xf0f0f
  400414:	0f010113          	addi	sp,sp,240 # f0f0f0f0 <_end+0xf0b0e0f0>
  400418:	00000013          	nop
  40041c:	0ff010b7          	lui	ra,0xff01
  400420:	ff008093          	addi	ra,ra,-16 # ff00ff0 <_end+0xfaffff0>
  400424:	00000013          	nop
  400428:	0020ef33          	or	t5,ra,sp
  40042c:	000f0313          	mv	t1,t5
  400430:	00120213          	addi	tp,tp,1 # 1 <__start-0x3fffff>
  400434:	00200293          	li	t0,2
  400438:	fc521ce3          	bne	tp,t0,400410 <label_test21>
  40043c:	fff10eb7          	lui	t4,0xfff10
  400440:	ff0e8e93          	addi	t4,t4,-16 # fff0fff0 <_end+0xffb0eff0>
  400444:	0bd31a63          	bne	t1,t4,4004f8 <fail>

00400448 <test22>:
  400448:	01600593          	li	a1,22
  40044c:	00000213          	li	tp,0

00400450 <label_test22>:
  400450:	0f0f1137          	lui	sp,0xf0f1
  400454:	f0f10113          	addi	sp,sp,-241 # f0f0f0f <_end+0xeceff0f>
  400458:	00ff00b7          	lui	ra,0xff0
  40045c:	0ff08093          	addi	ra,ra,255 # ff00ff <_end+0xbef0ff>
  400460:	00000013          	nop
  400464:	00000013          	nop
  400468:	0020ef33          	or	t5,ra,sp
  40046c:	000f0313          	mv	t1,t5
  400470:	00120213          	addi	tp,tp,1 # 1 <__start-0x3fffff>
  400474:	00200293          	li	t0,2
  400478:	fc521ce3          	bne	tp,t0,400450 <label_test22>
  40047c:	0fff1eb7          	lui	t4,0xfff1
  400480:	fffe8e93          	addi	t4,t4,-1 # fff0fff <_end+0xfbeffff>
  400484:	07d31a63          	bne	t1,t4,4004f8 <fail>

00400488 <test23>:
  400488:	01700593          	li	a1,23
  40048c:	ff0100b7          	lui	ra,0xff010
  400490:	f0008093          	addi	ra,ra,-256 # ff00ff00 <_end+0xfec0ef00>
  400494:	00106133          	or	sp,zero,ra
  400498:	ff010eb7          	lui	t4,0xff010
  40049c:	f00e8e93          	addi	t4,t4,-256 # ff00ff00 <_end+0xfec0ef00>
  4004a0:	05d11c63          	bne	sp,t4,4004f8 <fail>

004004a4 <test24>:
  4004a4:	01800593          	li	a1,24
  4004a8:	00ff00b7          	lui	ra,0xff0
  4004ac:	0ff08093          	addi	ra,ra,255 # ff00ff <_end+0xbef0ff>
  4004b0:	0000e133          	or	sp,ra,zero
  4004b4:	00ff0eb7          	lui	t4,0xff0
  4004b8:	0ffe8e93          	addi	t4,t4,255 # ff00ff <_end+0xbef0ff>
  4004bc:	03d11e63          	bne	sp,t4,4004f8 <fail>

004004c0 <test25>:
  4004c0:	01900593          	li	a1,25
  4004c4:	000060b3          	or	ra,zero,zero
  4004c8:	00000e93          	li	t4,0
  4004cc:	03d09663          	bne	ra,t4,4004f8 <fail>

004004d0 <test26>:
  4004d0:	01a00593          	li	a1,26
  4004d4:	111110b7          	lui	ra,0x11111
  4004d8:	11108093          	addi	ra,ra,273 # 11111111 <_end+0x10d10111>
  4004dc:	22222137          	lui	sp,0x22222
  4004e0:	22210113          	addi	sp,sp,546 # 22222222 <_end+0x21e21222>
  4004e4:	0020e033          	or	zero,ra,sp
  4004e8:	00000e93          	li	t4,0
  4004ec:	01d01663          	bne	zero,t4,4004f8 <fail>

004004f0 <success>:
  4004f0:	00a00513          	li	a0,10
  4004f4:	00000073          	ecall

004004f8 <fail>:
  4004f8:	01100513          	li	a0,17
  4004fc:	00000073          	ecall
