
sb.elf:     file format elf32-littleriscv


Disassembly of section .data:

80001000 <tdat>:
80001000:	          	jal	t6,7ffff6fe <__start-0x902>

80001001 <tdat2>:
80001001:	          	jal	t6,7ffff6ff <__start-0x901>

80001002 <tdat3>:
80001002:	          	jal	t6,7ffff700 <__start-0x900>

80001003 <tdat4>:
80001003:	          	jal	t6,7ffff701 <__start-0x8ff>

80001004 <tdat5>:
80001004:	          	jal	t6,7ffff702 <__start-0x8fe>

80001005 <tdat6>:
80001005:	          	jal	t6,7ffff703 <__start-0x8fd>

80001006 <tdat7>:
80001006:	          	jal	t6,7ffff704 <__start-0x8fc>

80001007 <tdat8>:
80001007:	ef    	Address 0x0000000080001007 is out of bounds.

8000100b:	 

80001008 <tdat9>:
80001008:	ef    	Address 0x0000000080001008 is out of bounds.

8000100c:	 

80001009 <tdat10>:
80001009:	ef    	Address 0x0000000080001009 is out of bounds.

8000100d:	 

Disassembly of section .riscv.attributes:

00000000 <.riscv.attributes>:
   0:	1941                	.2byte	0x1941
   2:	0000                	.2byte	0x0
   4:	7200                	.2byte	0x7200
   6:	7369                	.2byte	0x7369
   8:	01007663          	bgeu	zero,a6,14 <__start-0x7fffffec>
   c:	0000000f          	fence	unknown,unknown
  10:	7205                	.2byte	0x7205
  12:	3376                	.2byte	0x3376
  14:	6932                	.2byte	0x6932
  16:	7032                	.2byte	0x7032
  18:	0030                	.2byte	0x30

Disassembly of section .text:

80000000 <__start>:
80000000:	00100593          	li	a1,1
80000004:	00001097          	auipc	ra,0x1
80000008:	ffc08093          	addi	ra,ra,-4 # 80001000 <tdat>
8000000c:	faa00113          	li	sp,-86
80000010:	00208023          	sb	sp,0(ra)
80000014:	00008f03          	lb	t5,0(ra)
80000018:	faa00e93          	li	t4,-86
8000001c:	3ddf1663          	bne	t5,t4,800003e8 <fail>

80000020 <test02>:
80000020:	00200593          	li	a1,2
80000024:	00001097          	auipc	ra,0x1
80000028:	fdc08093          	addi	ra,ra,-36 # 80001000 <tdat>
8000002c:	00000113          	li	sp,0
80000030:	002080a3          	sb	sp,1(ra)
80000034:	00108f03          	lb	t5,1(ra)
80000038:	00000e93          	li	t4,0
8000003c:	3bdf1663          	bne	t5,t4,800003e8 <fail>

80000040 <test03>:
80000040:	00300593          	li	a1,3
80000044:	00001097          	auipc	ra,0x1
80000048:	fbc08093          	addi	ra,ra,-68 # 80001000 <tdat>
8000004c:	fffff137          	lui	sp,0xfffff
80000050:	fa010113          	addi	sp,sp,-96 # ffffefa0 <_end+0x7fffcfa0>
80000054:	00208123          	sb	sp,2(ra)
80000058:	00209f03          	lh	t5,2(ra)
8000005c:	fffffeb7          	lui	t4,0xfffff
80000060:	fa0e8e93          	addi	t4,t4,-96 # ffffefa0 <_end+0x7fffcfa0>
80000064:	39df1263          	bne	t5,t4,800003e8 <fail>

80000068 <test04>:
80000068:	00400593          	li	a1,4
8000006c:	00001097          	auipc	ra,0x1
80000070:	f9408093          	addi	ra,ra,-108 # 80001000 <tdat>
80000074:	00a00113          	li	sp,10
80000078:	002081a3          	sb	sp,3(ra)
8000007c:	00308f03          	lb	t5,3(ra)
80000080:	00a00e93          	li	t4,10
80000084:	37df1263          	bne	t5,t4,800003e8 <fail>

80000088 <test05>:
80000088:	00500593          	li	a1,5
8000008c:	00001097          	auipc	ra,0x1
80000090:	f7b08093          	addi	ra,ra,-133 # 80001007 <tdat8>
80000094:	faa00113          	li	sp,-86
80000098:	fe208ea3          	sb	sp,-3(ra)
8000009c:	ffd08f03          	lb	t5,-3(ra)
800000a0:	faa00e93          	li	t4,-86
800000a4:	35df1263          	bne	t5,t4,800003e8 <fail>

800000a8 <test06>:
800000a8:	00600593          	li	a1,6
800000ac:	00001097          	auipc	ra,0x1
800000b0:	f5b08093          	addi	ra,ra,-165 # 80001007 <tdat8>
800000b4:	00000113          	li	sp,0
800000b8:	fe208f23          	sb	sp,-2(ra)
800000bc:	ffe08f03          	lb	t5,-2(ra)
800000c0:	00000e93          	li	t4,0
800000c4:	33df1263          	bne	t5,t4,800003e8 <fail>

800000c8 <test07>:
800000c8:	00700593          	li	a1,7
800000cc:	00001097          	auipc	ra,0x1
800000d0:	f3b08093          	addi	ra,ra,-197 # 80001007 <tdat8>
800000d4:	fa000113          	li	sp,-96
800000d8:	fe208fa3          	sb	sp,-1(ra)
800000dc:	fff08f03          	lb	t5,-1(ra)
800000e0:	fa000e93          	li	t4,-96
800000e4:	31df1263          	bne	t5,t4,800003e8 <fail>

800000e8 <test08>:
800000e8:	00800593          	li	a1,8
800000ec:	00001097          	auipc	ra,0x1
800000f0:	f1b08093          	addi	ra,ra,-229 # 80001007 <tdat8>
800000f4:	00a00113          	li	sp,10
800000f8:	00208023          	sb	sp,0(ra)
800000fc:	00008f03          	lb	t5,0(ra)
80000100:	00a00e93          	li	t4,10
80000104:	2fdf1263          	bne	t5,t4,800003e8 <fail>

80000108 <test09>:
80000108:	00900593          	li	a1,9
8000010c:	00001097          	auipc	ra,0x1
80000110:	efc08093          	addi	ra,ra,-260 # 80001008 <tdat9>
80000114:	12345137          	lui	sp,0x12345
80000118:	67810113          	addi	sp,sp,1656 # 12345678 <__start-0x6dcba988>
8000011c:	fe008213          	addi	tp,ra,-32
80000120:	02220023          	sb	sp,32(tp) # 20 <__start-0x7fffffe0>
80000124:	00008283          	lb	t0,0(ra)
80000128:	07800e93          	li	t4,120
8000012c:	2bd29e63          	bne	t0,t4,800003e8 <fail>

80000130 <test10>:
80000130:	00a00593          	li	a1,10
80000134:	00001097          	auipc	ra,0x1
80000138:	ed408093          	addi	ra,ra,-300 # 80001008 <tdat9>
8000013c:	00003137          	lui	sp,0x3
80000140:	09810113          	addi	sp,sp,152 # 3098 <__start-0x7fffcf68>
80000144:	ffa08093          	addi	ra,ra,-6
80000148:	002083a3          	sb	sp,7(ra)
8000014c:	00001217          	auipc	tp,0x1
80000150:	ebd20213          	addi	tp,tp,-323 # 80001009 <tdat10>
80000154:	00020283          	lb	t0,0(tp) # 0 <__start-0x80000000>
80000158:	f9800e93          	li	t4,-104
8000015c:	29d29663          	bne	t0,t4,800003e8 <fail>

80000160 <test11>:
80000160:	00b00593          	li	a1,11
80000164:	00000213          	li	tp,0

80000168 <label1_test11>:
80000168:	fdd00093          	li	ra,-35
8000016c:	00001117          	auipc	sp,0x1
80000170:	e9410113          	addi	sp,sp,-364 # 80001000 <tdat>
80000174:	00110023          	sb	ra,0(sp)
80000178:	00010f03          	lb	t5,0(sp)
8000017c:	fdd00e93          	li	t4,-35
80000180:	27df1463          	bne	t5,t4,800003e8 <fail>
80000184:	00120213          	addi	tp,tp,1 # 1 <__start-0x7fffffff>
80000188:	00200293          	li	t0,2
8000018c:	fc521ee3          	bne	tp,t0,80000168 <label1_test11>

80000190 <test12>:
80000190:	00c00593          	li	a1,12
80000194:	00000213          	li	tp,0

80000198 <label1_test12>:
80000198:	fcd00093          	li	ra,-51
8000019c:	00001117          	auipc	sp,0x1
800001a0:	e6410113          	addi	sp,sp,-412 # 80001000 <tdat>
800001a4:	00000013          	nop
800001a8:	001100a3          	sb	ra,1(sp)
800001ac:	00110f03          	lb	t5,1(sp)
800001b0:	fcd00e93          	li	t4,-51
800001b4:	23df1a63          	bne	t5,t4,800003e8 <fail>
800001b8:	00120213          	addi	tp,tp,1 # 1 <__start-0x7fffffff>
800001bc:	00200293          	li	t0,2
800001c0:	fc521ce3          	bne	tp,t0,80000198 <label1_test12>

800001c4 <test13>:
800001c4:	00d00593          	li	a1,13
800001c8:	00000213          	li	tp,0

800001cc <label1_test13>:
800001cc:	fcc00093          	li	ra,-52
800001d0:	00001117          	auipc	sp,0x1
800001d4:	e3010113          	addi	sp,sp,-464 # 80001000 <tdat>
800001d8:	00000013          	nop
800001dc:	00000013          	nop
800001e0:	00110123          	sb	ra,2(sp)
800001e4:	00210f03          	lb	t5,2(sp)
800001e8:	fcc00e93          	li	t4,-52
800001ec:	1fdf1e63          	bne	t5,t4,800003e8 <fail>
800001f0:	00120213          	addi	tp,tp,1 # 1 <__start-0x7fffffff>
800001f4:	00200293          	li	t0,2
800001f8:	fc521ae3          	bne	tp,t0,800001cc <label1_test13>

800001fc <test14>:
800001fc:	00e00593          	li	a1,14
80000200:	00000213          	li	tp,0

80000204 <label1_test14>:
80000204:	fbc00093          	li	ra,-68
80000208:	00000013          	nop
8000020c:	00001117          	auipc	sp,0x1
80000210:	df410113          	addi	sp,sp,-524 # 80001000 <tdat>
80000214:	001101a3          	sb	ra,3(sp)
80000218:	00310f03          	lb	t5,3(sp)
8000021c:	fbc00e93          	li	t4,-68
80000220:	1ddf1463          	bne	t5,t4,800003e8 <fail>
80000224:	00120213          	addi	tp,tp,1 # 1 <__start-0x7fffffff>
80000228:	00200293          	li	t0,2
8000022c:	fc521ce3          	bne	tp,t0,80000204 <label1_test14>

80000230 <test15>:
80000230:	00f00593          	li	a1,15
80000234:	00000213          	li	tp,0

80000238 <label1_test15>:
80000238:	fbb00093          	li	ra,-69
8000023c:	00000013          	nop
80000240:	00001117          	auipc	sp,0x1
80000244:	dc010113          	addi	sp,sp,-576 # 80001000 <tdat>
80000248:	00000013          	nop
8000024c:	00110223          	sb	ra,4(sp)
80000250:	00410f03          	lb	t5,4(sp)
80000254:	fbb00e93          	li	t4,-69
80000258:	19df1863          	bne	t5,t4,800003e8 <fail>
8000025c:	00120213          	addi	tp,tp,1 # 1 <__start-0x7fffffff>
80000260:	00200293          	li	t0,2
80000264:	fc521ae3          	bne	tp,t0,80000238 <label1_test15>

80000268 <test16>:
80000268:	01000593          	li	a1,16
8000026c:	00000213          	li	tp,0

80000270 <label1_test16>:
80000270:	fab00093          	li	ra,-85
80000274:	00000013          	nop
80000278:	00000013          	nop
8000027c:	00001117          	auipc	sp,0x1
80000280:	d8410113          	addi	sp,sp,-636 # 80001000 <tdat>
80000284:	001102a3          	sb	ra,5(sp)
80000288:	00510f03          	lb	t5,5(sp)
8000028c:	fab00e93          	li	t4,-85
80000290:	15df1c63          	bne	t5,t4,800003e8 <fail>
80000294:	00120213          	addi	tp,tp,1 # 1 <__start-0x7fffffff>
80000298:	00200293          	li	t0,2
8000029c:	fc521ae3          	bne	tp,t0,80000270 <label1_test16>

800002a0 <test17>:
800002a0:	01100593          	li	a1,17
800002a4:	00000213          	li	tp,0

800002a8 <label1_test17>:
800002a8:	00001117          	auipc	sp,0x1
800002ac:	d5810113          	addi	sp,sp,-680 # 80001000 <tdat>
800002b0:	03300093          	li	ra,51
800002b4:	00110023          	sb	ra,0(sp)
800002b8:	00010f03          	lb	t5,0(sp)
800002bc:	03300e93          	li	t4,51
800002c0:	13df1463          	bne	t5,t4,800003e8 <fail>
800002c4:	00120213          	addi	tp,tp,1 # 1 <__start-0x7fffffff>
800002c8:	00200293          	li	t0,2
800002cc:	fc521ee3          	bne	tp,t0,800002a8 <label1_test17>

800002d0 <test18>:
800002d0:	01200593          	li	a1,18
800002d4:	00000213          	li	tp,0

800002d8 <label1_test18>:
800002d8:	00001117          	auipc	sp,0x1
800002dc:	d2810113          	addi	sp,sp,-728 # 80001000 <tdat>
800002e0:	02300093          	li	ra,35
800002e4:	00000013          	nop
800002e8:	001100a3          	sb	ra,1(sp)
800002ec:	00110f03          	lb	t5,1(sp)
800002f0:	02300e93          	li	t4,35
800002f4:	0fdf1a63          	bne	t5,t4,800003e8 <fail>
800002f8:	00120213          	addi	tp,tp,1 # 1 <__start-0x7fffffff>
800002fc:	00200293          	li	t0,2
80000300:	fc521ce3          	bne	tp,t0,800002d8 <label1_test18>

80000304 <test19>:
80000304:	01300593          	li	a1,19
80000308:	00000213          	li	tp,0

8000030c <label1_test19>:
8000030c:	00001117          	auipc	sp,0x1
80000310:	cf410113          	addi	sp,sp,-780 # 80001000 <tdat>
80000314:	02200093          	li	ra,34
80000318:	00000013          	nop
8000031c:	00000013          	nop
80000320:	00110123          	sb	ra,2(sp)
80000324:	00210f03          	lb	t5,2(sp)
80000328:	02200e93          	li	t4,34
8000032c:	0bdf1e63          	bne	t5,t4,800003e8 <fail>
80000330:	00120213          	addi	tp,tp,1 # 1 <__start-0x7fffffff>
80000334:	00200293          	li	t0,2
80000338:	fc521ae3          	bne	tp,t0,8000030c <label1_test19>

8000033c <test20>:
8000033c:	01400593          	li	a1,20
80000340:	00000213          	li	tp,0

80000344 <label1_test20>:
80000344:	00001117          	auipc	sp,0x1
80000348:	cbc10113          	addi	sp,sp,-836 # 80001000 <tdat>
8000034c:	00000013          	nop
80000350:	01200093          	li	ra,18
80000354:	001101a3          	sb	ra,3(sp)
80000358:	00310f03          	lb	t5,3(sp)
8000035c:	01200e93          	li	t4,18
80000360:	09df1463          	bne	t5,t4,800003e8 <fail>
80000364:	00120213          	addi	tp,tp,1 # 1 <__start-0x7fffffff>
80000368:	00200293          	li	t0,2
8000036c:	fc521ce3          	bne	tp,t0,80000344 <label1_test20>

80000370 <test21>:
80000370:	01500593          	li	a1,21
80000374:	00000213          	li	tp,0

80000378 <label1_test21>:
80000378:	00001117          	auipc	sp,0x1
8000037c:	c8810113          	addi	sp,sp,-888 # 80001000 <tdat>
80000380:	00000013          	nop
80000384:	01100093          	li	ra,17
80000388:	00000013          	nop
8000038c:	00110223          	sb	ra,4(sp)
80000390:	00410f03          	lb	t5,4(sp)
80000394:	01100e93          	li	t4,17
80000398:	05df1863          	bne	t5,t4,800003e8 <fail>
8000039c:	00120213          	addi	tp,tp,1 # 1 <__start-0x7fffffff>
800003a0:	00200293          	li	t0,2
800003a4:	fc521ae3          	bne	tp,t0,80000378 <label1_test21>

800003a8 <test22>:
800003a8:	01600593          	li	a1,22
800003ac:	00000213          	li	tp,0

800003b0 <label1_test22>:
800003b0:	00001117          	auipc	sp,0x1
800003b4:	c5010113          	addi	sp,sp,-944 # 80001000 <tdat>
800003b8:	00000013          	nop
800003bc:	00000013          	nop
800003c0:	00100093          	li	ra,1
800003c4:	001102a3          	sb	ra,5(sp)
800003c8:	00510f03          	lb	t5,5(sp)
800003cc:	00100e93          	li	t4,1
800003d0:	01df1c63          	bne	t5,t4,800003e8 <fail>
800003d4:	00120213          	addi	tp,tp,1 # 1 <__start-0x7fffffff>
800003d8:	00200293          	li	t0,2
800003dc:	fc521ae3          	bne	tp,t0,800003b0 <label1_test22>

800003e0 <success>:
800003e0:	00a00513          	li	a0,10
800003e4:	00000073          	ecall

800003e8 <fail>:
800003e8:	01100513          	li	a0,17
800003ec:	00000073          	ecall
