
sll.elf:     file format elf32-littleriscv


Disassembly of section .text:

00400000 <__start>:
  400000:	00100593          	li	a1,1
  400004:	00100093          	li	ra,1
  400008:	00000113          	li	sp,0
  40000c:	00209f33          	sll	t5,ra,sp
  400010:	00100e93          	li	t4,1
  400014:	57df1863          	bne	t5,t4,400584 <fail>

00400018 <test02>:
  400018:	00200593          	li	a1,2
  40001c:	00100093          	li	ra,1
  400020:	00100113          	li	sp,1
  400024:	00209f33          	sll	t5,ra,sp
  400028:	00200e93          	li	t4,2
  40002c:	55df1c63          	bne	t5,t4,400584 <fail>

00400030 <test03>:
  400030:	00300593          	li	a1,3
  400034:	00100093          	li	ra,1
  400038:	00700113          	li	sp,7
  40003c:	00209f33          	sll	t5,ra,sp
  400040:	08000e93          	li	t4,128
  400044:	55df1063          	bne	t5,t4,400584 <fail>

00400048 <test04>:
  400048:	00400593          	li	a1,4
  40004c:	00100093          	li	ra,1
  400050:	00e00113          	li	sp,14
  400054:	00209f33          	sll	t5,ra,sp
  400058:	00004eb7          	lui	t4,0x4
  40005c:	53df1463          	bne	t5,t4,400584 <fail>

00400060 <test05>:
  400060:	00500593          	li	a1,5
  400064:	00100093          	li	ra,1
  400068:	01f00113          	li	sp,31
  40006c:	00209f33          	sll	t5,ra,sp
  400070:	80000eb7          	lui	t4,0x80000
  400074:	51df1863          	bne	t5,t4,400584 <fail>

00400078 <test06>:
  400078:	00600593          	li	a1,6
  40007c:	fff00093          	li	ra,-1
  400080:	00000113          	li	sp,0
  400084:	00209f33          	sll	t5,ra,sp
  400088:	fff00e93          	li	t4,-1
  40008c:	4fdf1c63          	bne	t5,t4,400584 <fail>

00400090 <test07>:
  400090:	00700593          	li	a1,7
  400094:	fff00093          	li	ra,-1
  400098:	00100113          	li	sp,1
  40009c:	00209f33          	sll	t5,ra,sp
  4000a0:	ffe00e93          	li	t4,-2
  4000a4:	4fdf1063          	bne	t5,t4,400584 <fail>

004000a8 <test08>:
  4000a8:	00800593          	li	a1,8
  4000ac:	fff00093          	li	ra,-1
  4000b0:	00700113          	li	sp,7
  4000b4:	00209f33          	sll	t5,ra,sp
  4000b8:	f8000e93          	li	t4,-128
  4000bc:	4ddf1463          	bne	t5,t4,400584 <fail>

004000c0 <test09>:
  4000c0:	00900593          	li	a1,9
  4000c4:	fff00093          	li	ra,-1
  4000c8:	00e00113          	li	sp,14
  4000cc:	00209f33          	sll	t5,ra,sp
  4000d0:	ffffceb7          	lui	t4,0xffffc
  4000d4:	4bdf1863          	bne	t5,t4,400584 <fail>

004000d8 <test10>:
  4000d8:	00a00593          	li	a1,10
  4000dc:	fff00093          	li	ra,-1
  4000e0:	01f00113          	li	sp,31
  4000e4:	00209f33          	sll	t5,ra,sp
  4000e8:	80000eb7          	lui	t4,0x80000
  4000ec:	49df1c63          	bne	t5,t4,400584 <fail>

004000f0 <test11>:
  4000f0:	00b00593          	li	a1,11
  4000f4:	212120b7          	lui	ra,0x21212
  4000f8:	12108093          	addi	ra,ra,289 # 21212121 <_end+0x20e11121>
  4000fc:	00000113          	li	sp,0
  400100:	00209f33          	sll	t5,ra,sp
  400104:	21212eb7          	lui	t4,0x21212
  400108:	121e8e93          	addi	t4,t4,289 # 21212121 <_end+0x20e11121>
  40010c:	47df1c63          	bne	t5,t4,400584 <fail>

00400110 <test12>:
  400110:	00c00593          	li	a1,12
  400114:	212120b7          	lui	ra,0x21212
  400118:	12108093          	addi	ra,ra,289 # 21212121 <_end+0x20e11121>
  40011c:	00100113          	li	sp,1
  400120:	00209f33          	sll	t5,ra,sp
  400124:	42424eb7          	lui	t4,0x42424
  400128:	242e8e93          	addi	t4,t4,578 # 42424242 <_end+0x42023242>
  40012c:	45df1c63          	bne	t5,t4,400584 <fail>

00400130 <test13>:
  400130:	00d00593          	li	a1,13
  400134:	212120b7          	lui	ra,0x21212
  400138:	12108093          	addi	ra,ra,289 # 21212121 <_end+0x20e11121>
  40013c:	00700113          	li	sp,7
  400140:	00209f33          	sll	t5,ra,sp
  400144:	90909eb7          	lui	t4,0x90909
  400148:	080e8e93          	addi	t4,t4,128 # 90909080 <_end+0x90508080>
  40014c:	43df1c63          	bne	t5,t4,400584 <fail>

00400150 <test14>:
  400150:	00e00593          	li	a1,14
  400154:	212120b7          	lui	ra,0x21212
  400158:	12108093          	addi	ra,ra,289 # 21212121 <_end+0x20e11121>
  40015c:	00e00113          	li	sp,14
  400160:	00209f33          	sll	t5,ra,sp
  400164:	48484eb7          	lui	t4,0x48484
  400168:	41df1e63          	bne	t5,t4,400584 <fail>

0040016c <test15>:
  40016c:	00f00593          	li	a1,15
  400170:	212120b7          	lui	ra,0x21212
  400174:	12108093          	addi	ra,ra,289 # 21212121 <_end+0x20e11121>
  400178:	01f00113          	li	sp,31
  40017c:	00209f33          	sll	t5,ra,sp
  400180:	80000eb7          	lui	t4,0x80000
  400184:	41df1063          	bne	t5,t4,400584 <fail>

00400188 <test16>:
  400188:	01000593          	li	a1,16
  40018c:	212120b7          	lui	ra,0x21212
  400190:	12108093          	addi	ra,ra,289 # 21212121 <_end+0x20e11121>
  400194:	fc000113          	li	sp,-64
  400198:	00209f33          	sll	t5,ra,sp
  40019c:	21212eb7          	lui	t4,0x21212
  4001a0:	121e8e93          	addi	t4,t4,289 # 21212121 <_end+0x20e11121>
  4001a4:	3fdf1063          	bne	t5,t4,400584 <fail>

004001a8 <test17>:
  4001a8:	01100593          	li	a1,17
  4001ac:	212120b7          	lui	ra,0x21212
  4001b0:	12108093          	addi	ra,ra,289 # 21212121 <_end+0x20e11121>
  4001b4:	fc100113          	li	sp,-63
  4001b8:	00209f33          	sll	t5,ra,sp
  4001bc:	42424eb7          	lui	t4,0x42424
  4001c0:	242e8e93          	addi	t4,t4,578 # 42424242 <_end+0x42023242>
  4001c4:	3ddf1063          	bne	t5,t4,400584 <fail>

004001c8 <test18>:
  4001c8:	01200593          	li	a1,18
  4001cc:	212120b7          	lui	ra,0x21212
  4001d0:	12108093          	addi	ra,ra,289 # 21212121 <_end+0x20e11121>
  4001d4:	fc700113          	li	sp,-57
  4001d8:	00209f33          	sll	t5,ra,sp
  4001dc:	90909eb7          	lui	t4,0x90909
  4001e0:	080e8e93          	addi	t4,t4,128 # 90909080 <_end+0x90508080>
  4001e4:	3bdf1063          	bne	t5,t4,400584 <fail>

004001e8 <test19>:
  4001e8:	01300593          	li	a1,19
  4001ec:	212120b7          	lui	ra,0x21212
  4001f0:	12108093          	addi	ra,ra,289 # 21212121 <_end+0x20e11121>
  4001f4:	fce00113          	li	sp,-50
  4001f8:	00209f33          	sll	t5,ra,sp
  4001fc:	48484eb7          	lui	t4,0x48484
  400200:	39df1263          	bne	t5,t4,400584 <fail>

00400204 <test21>:
  400204:	01500593          	li	a1,21
  400208:	00100093          	li	ra,1
  40020c:	00700113          	li	sp,7
  400210:	002090b3          	sll	ra,ra,sp
  400214:	08000e93          	li	t4,128
  400218:	37d09663          	bne	ra,t4,400584 <fail>

0040021c <test22>:
  40021c:	01600593          	li	a1,22
  400220:	00100093          	li	ra,1
  400224:	00e00113          	li	sp,14
  400228:	00209133          	sll	sp,ra,sp
  40022c:	00004eb7          	lui	t4,0x4
  400230:	35d11a63          	bne	sp,t4,400584 <fail>

00400234 <test23>:
  400234:	01700593          	li	a1,23
  400238:	00300093          	li	ra,3
  40023c:	001090b3          	sll	ra,ra,ra
  400240:	01800e93          	li	t4,24
  400244:	35d09063          	bne	ra,t4,400584 <fail>

00400248 <test24>:
  400248:	01800593          	li	a1,24
  40024c:	00000213          	li	tp,0

00400250 <label_test24>:
  400250:	00100093          	li	ra,1
  400254:	00700113          	li	sp,7
  400258:	00209f33          	sll	t5,ra,sp
  40025c:	000f0313          	mv	t1,t5
  400260:	00120213          	addi	tp,tp,1 # 1 <__start-0x3fffff>
  400264:	00200293          	li	t0,2
  400268:	fe5214e3          	bne	tp,t0,400250 <label_test24>
  40026c:	08000e93          	li	t4,128
  400270:	31d31a63          	bne	t1,t4,400584 <fail>

00400274 <test25>:
  400274:	01900593          	li	a1,25
  400278:	00000213          	li	tp,0

0040027c <label_test25>:
  40027c:	00100093          	li	ra,1
  400280:	00e00113          	li	sp,14
  400284:	00209f33          	sll	t5,ra,sp
  400288:	00000013          	nop
  40028c:	000f0313          	mv	t1,t5
  400290:	00120213          	addi	tp,tp,1 # 1 <__start-0x3fffff>
  400294:	00200293          	li	t0,2
  400298:	fe5212e3          	bne	tp,t0,40027c <label_test25>
  40029c:	00004eb7          	lui	t4,0x4
  4002a0:	2fd31263          	bne	t1,t4,400584 <fail>

004002a4 <test26>:
  4002a4:	01a00593          	li	a1,26
  4002a8:	00000213          	li	tp,0

004002ac <label_test26>:
  4002ac:	00100093          	li	ra,1
  4002b0:	01f00113          	li	sp,31
  4002b4:	00209f33          	sll	t5,ra,sp
  4002b8:	00000013          	nop
  4002bc:	00000013          	nop
  4002c0:	000f0313          	mv	t1,t5
  4002c4:	00120213          	addi	tp,tp,1 # 1 <__start-0x3fffff>
  4002c8:	00200293          	li	t0,2
  4002cc:	fe5210e3          	bne	tp,t0,4002ac <label_test26>
  4002d0:	80000eb7          	lui	t4,0x80000
  4002d4:	2bd31863          	bne	t1,t4,400584 <fail>

004002d8 <test27>:
  4002d8:	01b00593          	li	a1,27
  4002dc:	00000213          	li	tp,0

004002e0 <label_test27>:
  4002e0:	00100093          	li	ra,1
  4002e4:	00700113          	li	sp,7
  4002e8:	00209f33          	sll	t5,ra,sp
  4002ec:	000f0313          	mv	t1,t5
  4002f0:	00120213          	addi	tp,tp,1 # 1 <__start-0x3fffff>
  4002f4:	00200293          	li	t0,2
  4002f8:	fe5214e3          	bne	tp,t0,4002e0 <label_test27>
  4002fc:	08000e93          	li	t4,128
  400300:	29d31263          	bne	t1,t4,400584 <fail>

00400304 <test28>:
  400304:	01c00593          	li	a1,28
  400308:	00000213          	li	tp,0

0040030c <label_test28>:
  40030c:	00100093          	li	ra,1
  400310:	00e00113          	li	sp,14
  400314:	00000013          	nop
  400318:	00209f33          	sll	t5,ra,sp
  40031c:	000f0313          	mv	t1,t5
  400320:	00120213          	addi	tp,tp,1 # 1 <__start-0x3fffff>
  400324:	00200293          	li	t0,2
  400328:	fe5212e3          	bne	tp,t0,40030c <label_test28>
  40032c:	00004eb7          	lui	t4,0x4
  400330:	25d31a63          	bne	t1,t4,400584 <fail>

00400334 <test29>:
  400334:	01d00593          	li	a1,29
  400338:	00000213          	li	tp,0

0040033c <label_test29>:
  40033c:	00100093          	li	ra,1
  400340:	01f00113          	li	sp,31
  400344:	00000013          	nop
  400348:	00000013          	nop
  40034c:	00209f33          	sll	t5,ra,sp
  400350:	000f0313          	mv	t1,t5
  400354:	00120213          	addi	tp,tp,1 # 1 <__start-0x3fffff>
  400358:	00200293          	li	t0,2
  40035c:	fe5210e3          	bne	tp,t0,40033c <label_test29>
  400360:	80000eb7          	lui	t4,0x80000
  400364:	23d31063          	bne	t1,t4,400584 <fail>

00400368 <test30>:
  400368:	01e00593          	li	a1,30
  40036c:	00000213          	li	tp,0

00400370 <label_test30>:
  400370:	00100093          	li	ra,1
  400374:	00000013          	nop
  400378:	00700113          	li	sp,7
  40037c:	00209f33          	sll	t5,ra,sp
  400380:	000f0313          	mv	t1,t5
  400384:	00120213          	addi	tp,tp,1 # 1 <__start-0x3fffff>
  400388:	00200293          	li	t0,2
  40038c:	fe5212e3          	bne	tp,t0,400370 <label_test30>
  400390:	08000e93          	li	t4,128
  400394:	1fd31863          	bne	t1,t4,400584 <fail>

00400398 <test31>:
  400398:	01f00593          	li	a1,31
  40039c:	00000213          	li	tp,0

004003a0 <label_test31>:
  4003a0:	00100093          	li	ra,1
  4003a4:	00000013          	nop
  4003a8:	00e00113          	li	sp,14
  4003ac:	00000013          	nop
  4003b0:	00209f33          	sll	t5,ra,sp
  4003b4:	000f0313          	mv	t1,t5
  4003b8:	00120213          	addi	tp,tp,1 # 1 <__start-0x3fffff>
  4003bc:	00200293          	li	t0,2
  4003c0:	fe5210e3          	bne	tp,t0,4003a0 <label_test31>
  4003c4:	00004eb7          	lui	t4,0x4
  4003c8:	1bd31e63          	bne	t1,t4,400584 <fail>

004003cc <test32>:
  4003cc:	02000593          	li	a1,32
  4003d0:	00000213          	li	tp,0

004003d4 <label_test32>:
  4003d4:	00100093          	li	ra,1
  4003d8:	00000013          	nop
  4003dc:	00000013          	nop
  4003e0:	01f00113          	li	sp,31
  4003e4:	00209f33          	sll	t5,ra,sp
  4003e8:	000f0313          	mv	t1,t5
  4003ec:	00120213          	addi	tp,tp,1 # 1 <__start-0x3fffff>
  4003f0:	00200293          	li	t0,2
  4003f4:	fe5210e3          	bne	tp,t0,4003d4 <label_test32>
  4003f8:	80000eb7          	lui	t4,0x80000
  4003fc:	19d31463          	bne	t1,t4,400584 <fail>

00400400 <test33>:
  400400:	02100593          	li	a1,33
  400404:	00000213          	li	tp,0

00400408 <label_test33>:
  400408:	00700113          	li	sp,7
  40040c:	00100093          	li	ra,1
  400410:	00209f33          	sll	t5,ra,sp
  400414:	000f0313          	mv	t1,t5
  400418:	00120213          	addi	tp,tp,1 # 1 <__start-0x3fffff>
  40041c:	00200293          	li	t0,2
  400420:	fe5214e3          	bne	tp,t0,400408 <label_test33>
  400424:	08000e93          	li	t4,128
  400428:	15d31e63          	bne	t1,t4,400584 <fail>

0040042c <test34>:
  40042c:	02200593          	li	a1,34
  400430:	00000213          	li	tp,0

00400434 <label_test34>:
  400434:	00e00113          	li	sp,14
  400438:	00000013          	nop
  40043c:	00100093          	li	ra,1
  400440:	00209f33          	sll	t5,ra,sp
  400444:	000f0313          	mv	t1,t5
  400448:	00120213          	addi	tp,tp,1 # 1 <__start-0x3fffff>
  40044c:	00200293          	li	t0,2
  400450:	fe5212e3          	bne	tp,t0,400434 <label_test34>
  400454:	00004eb7          	lui	t4,0x4
  400458:	13d31663          	bne	t1,t4,400584 <fail>

0040045c <test35>:
  40045c:	02300593          	li	a1,35
  400460:	00000213          	li	tp,0

00400464 <label_test35>:
  400464:	01f00113          	li	sp,31
  400468:	00000013          	nop
  40046c:	00000013          	nop
  400470:	00100093          	li	ra,1
  400474:	00209f33          	sll	t5,ra,sp
  400478:	000f0313          	mv	t1,t5
  40047c:	00120213          	addi	tp,tp,1 # 1 <__start-0x3fffff>
  400480:	00200293          	li	t0,2
  400484:	fe5210e3          	bne	tp,t0,400464 <label_test35>
  400488:	80000eb7          	lui	t4,0x80000
  40048c:	0fd31c63          	bne	t1,t4,400584 <fail>

00400490 <test36>:
  400490:	02400593          	li	a1,36
  400494:	00000213          	li	tp,0

00400498 <label_test36>:
  400498:	00700113          	li	sp,7
  40049c:	00100093          	li	ra,1
  4004a0:	00000013          	nop
  4004a4:	00209f33          	sll	t5,ra,sp
  4004a8:	000f0313          	mv	t1,t5
  4004ac:	00120213          	addi	tp,tp,1 # 1 <__start-0x3fffff>
  4004b0:	00200293          	li	t0,2
  4004b4:	fe5212e3          	bne	tp,t0,400498 <label_test36>
  4004b8:	08000e93          	li	t4,128
  4004bc:	0dd31463          	bne	t1,t4,400584 <fail>

004004c0 <test37>:
  4004c0:	02500593          	li	a1,37
  4004c4:	00000213          	li	tp,0

004004c8 <label_test37>:
  4004c8:	00e00113          	li	sp,14
  4004cc:	00000013          	nop
  4004d0:	00100093          	li	ra,1
  4004d4:	00000013          	nop
  4004d8:	00209f33          	sll	t5,ra,sp
  4004dc:	000f0313          	mv	t1,t5
  4004e0:	00120213          	addi	tp,tp,1 # 1 <__start-0x3fffff>
  4004e4:	00200293          	li	t0,2
  4004e8:	fe5210e3          	bne	tp,t0,4004c8 <label_test37>
  4004ec:	00004eb7          	lui	t4,0x4
  4004f0:	09d31a63          	bne	t1,t4,400584 <fail>

004004f4 <test38>:
  4004f4:	02600593          	li	a1,38
  4004f8:	00000213          	li	tp,0

004004fc <label_test38>:
  4004fc:	01f00113          	li	sp,31
  400500:	00100093          	li	ra,1
  400504:	00000013          	nop
  400508:	00000013          	nop
  40050c:	00209f33          	sll	t5,ra,sp
  400510:	000f0313          	mv	t1,t5
  400514:	00120213          	addi	tp,tp,1 # 1 <__start-0x3fffff>
  400518:	00200293          	li	t0,2
  40051c:	fe5210e3          	bne	tp,t0,4004fc <label_test38>
  400520:	80000eb7          	lui	t4,0x80000
  400524:	07d31063          	bne	t1,t4,400584 <fail>

00400528 <test39>:
  400528:	02700593          	li	a1,39
  40052c:	00f00093          	li	ra,15
  400530:	00101133          	sll	sp,zero,ra
  400534:	00000e93          	li	t4,0
  400538:	05d11663          	bne	sp,t4,400584 <fail>

0040053c <test40>:
  40053c:	02800593          	li	a1,40
  400540:	02000093          	li	ra,32
  400544:	00009133          	sll	sp,ra,zero
  400548:	02000e93          	li	t4,32
  40054c:	03d11c63          	bne	sp,t4,400584 <fail>

00400550 <test41>:
  400550:	02900593          	li	a1,41
  400554:	000010b3          	sll	ra,zero,zero
  400558:	00000e93          	li	t4,0
  40055c:	03d09463          	bne	ra,t4,400584 <fail>

00400560 <test42>:
  400560:	02a00593          	li	a1,42
  400564:	40000093          	li	ra,1024
  400568:	00001137          	lui	sp,0x1
  40056c:	80010113          	addi	sp,sp,-2048 # 800 <__start-0x3ff800>
  400570:	00209033          	sll	zero,ra,sp
  400574:	00000e93          	li	t4,0
  400578:	01d01663          	bne	zero,t4,400584 <fail>

0040057c <success>:
  40057c:	00a00513          	li	a0,10
  400580:	00000073          	ecall

00400584 <fail>:
  400584:	01100513          	li	a0,17
  400588:	00000073          	ecall
