
sltiu.elf:     file format elf32-littleriscv


Disassembly of section .riscv.attributes:

00000000 <.riscv.attributes>:
   0:	1941                	.2byte	0x1941
   2:	0000                	.2byte	0x0
   4:	7200                	.2byte	0x7200
   6:	7369                	.2byte	0x7369
   8:	01007663          	bgeu	zero,a6,14 <__start-0x7fffffec>
   c:	0000000f          	fence	unknown,unknown
  10:	7205                	.2byte	0x7205
  12:	3376                	.2byte	0x3376
  14:	6932                	.2byte	0x6932
  16:	7032                	.2byte	0x7032
  18:	0030                	.2byte	0x30

Disassembly of section .text:

80000000 <__start>:
80000000:	00100593          	li	a1,1
80000004:	00000093          	li	ra,0
80000008:	0000bf13          	sltiu	t5,ra,0
8000000c:	00000e93          	li	t4,0
80000010:	27df1463          	bne	t5,t4,80000278 <fail>

80000014 <test02>:
80000014:	00200593          	li	a1,2
80000018:	00100093          	li	ra,1
8000001c:	0010bf13          	seqz	t5,ra
80000020:	00000e93          	li	t4,0
80000024:	25df1a63          	bne	t5,t4,80000278 <fail>

80000028 <test03>:
80000028:	00300593          	li	a1,3
8000002c:	00300093          	li	ra,3
80000030:	0070bf13          	sltiu	t5,ra,7
80000034:	00100e93          	li	t4,1
80000038:	25df1063          	bne	t5,t4,80000278 <fail>

8000003c <test04>:
8000003c:	00400593          	li	a1,4
80000040:	00700093          	li	ra,7
80000044:	0030bf13          	sltiu	t5,ra,3
80000048:	00000e93          	li	t4,0
8000004c:	23df1663          	bne	t5,t4,80000278 <fail>

80000050 <test05>:
80000050:	00500593          	li	a1,5
80000054:	00000093          	li	ra,0
80000058:	8000bf13          	sltiu	t5,ra,-2048
8000005c:	00100e93          	li	t4,1
80000060:	21df1c63          	bne	t5,t4,80000278 <fail>

80000064 <test06>:
80000064:	00600593          	li	a1,6
80000068:	800000b7          	lui	ra,0x80000
8000006c:	0000bf13          	sltiu	t5,ra,0
80000070:	00000e93          	li	t4,0
80000074:	21df1263          	bne	t5,t4,80000278 <fail>

80000078 <test07>:
80000078:	00700593          	li	a1,7
8000007c:	800000b7          	lui	ra,0x80000
80000080:	8000bf13          	sltiu	t5,ra,-2048
80000084:	00100e93          	li	t4,1
80000088:	1fdf1863          	bne	t5,t4,80000278 <fail>

8000008c <test08>:
8000008c:	00800593          	li	a1,8
80000090:	00000093          	li	ra,0
80000094:	7ff0bf13          	sltiu	t5,ra,2047
80000098:	00100e93          	li	t4,1
8000009c:	1ddf1e63          	bne	t5,t4,80000278 <fail>

800000a0 <test09>:
800000a0:	00900593          	li	a1,9
800000a4:	800000b7          	lui	ra,0x80000
800000a8:	fff08093          	addi	ra,ra,-1 # 7fffffff <_end+0xffffefff>
800000ac:	0000bf13          	sltiu	t5,ra,0
800000b0:	00000e93          	li	t4,0
800000b4:	1ddf1263          	bne	t5,t4,80000278 <fail>

800000b8 <test10>:
800000b8:	00a00593          	li	a1,10
800000bc:	800000b7          	lui	ra,0x80000
800000c0:	fff08093          	addi	ra,ra,-1 # 7fffffff <_end+0xffffefff>
800000c4:	7ff0bf13          	sltiu	t5,ra,2047
800000c8:	00000e93          	li	t4,0
800000cc:	1bdf1663          	bne	t5,t4,80000278 <fail>

800000d0 <test11>:
800000d0:	00b00593          	li	a1,11
800000d4:	800000b7          	lui	ra,0x80000
800000d8:	7ff0bf13          	sltiu	t5,ra,2047
800000dc:	00000e93          	li	t4,0
800000e0:	19df1c63          	bne	t5,t4,80000278 <fail>

800000e4 <test12>:
800000e4:	00c00593          	li	a1,12
800000e8:	800000b7          	lui	ra,0x80000
800000ec:	fff08093          	addi	ra,ra,-1 # 7fffffff <_end+0xffffefff>
800000f0:	8000bf13          	sltiu	t5,ra,-2048
800000f4:	00100e93          	li	t4,1
800000f8:	19df1063          	bne	t5,t4,80000278 <fail>

800000fc <test13>:
800000fc:	00d00593          	li	a1,13
80000100:	00000093          	li	ra,0
80000104:	fff0bf13          	sltiu	t5,ra,-1
80000108:	00100e93          	li	t4,1
8000010c:	17df1663          	bne	t5,t4,80000278 <fail>

80000110 <test14>:
80000110:	00e00593          	li	a1,14
80000114:	fff00093          	li	ra,-1
80000118:	0010bf13          	seqz	t5,ra
8000011c:	00000e93          	li	t4,0
80000120:	15df1c63          	bne	t5,t4,80000278 <fail>

80000124 <test15>:
80000124:	00f00593          	li	a1,15
80000128:	fff00093          	li	ra,-1
8000012c:	fff0bf13          	sltiu	t5,ra,-1
80000130:	00000e93          	li	t4,0
80000134:	15df1263          	bne	t5,t4,80000278 <fail>

80000138 <test16>:
80000138:	01000593          	li	a1,16
8000013c:	00b00093          	li	ra,11
80000140:	00d0b093          	sltiu	ra,ra,13
80000144:	00100e93          	li	t4,1
80000148:	13d09863          	bne	ra,t4,80000278 <fail>

8000014c <test17>:
8000014c:	01100593          	li	a1,17
80000150:	00000213          	li	tp,0

80000154 <label1_test17>:
80000154:	00f00093          	li	ra,15
80000158:	00a0bf13          	sltiu	t5,ra,10
8000015c:	000f0313          	mv	t1,t5
80000160:	00120213          	addi	tp,tp,1 # 1 <__start-0x7fffffff>
80000164:	00200293          	li	t0,2
80000168:	fe5216e3          	bne	tp,t0,80000154 <label1_test17>
8000016c:	00000e93          	li	t4,0
80000170:	11d31463          	bne	t1,t4,80000278 <fail>

80000174 <test18>:
80000174:	01200593          	li	a1,18
80000178:	00000213          	li	tp,0

8000017c <label1_test18>:
8000017c:	00a00093          	li	ra,10
80000180:	0100bf13          	sltiu	t5,ra,16
80000184:	00000013          	nop
80000188:	000f0313          	mv	t1,t5
8000018c:	00120213          	addi	tp,tp,1 # 1 <__start-0x7fffffff>
80000190:	00200293          	li	t0,2
80000194:	fe5214e3          	bne	tp,t0,8000017c <label1_test18>
80000198:	00100e93          	li	t4,1
8000019c:	0dd31e63          	bne	t1,t4,80000278 <fail>

800001a0 <test19>:
800001a0:	01300593          	li	a1,19
800001a4:	00000213          	li	tp,0

800001a8 <label1_test19>:
800001a8:	01000093          	li	ra,16
800001ac:	0090bf13          	sltiu	t5,ra,9
800001b0:	00000013          	nop
800001b4:	00000013          	nop
800001b8:	000f0313          	mv	t1,t5
800001bc:	00120213          	addi	tp,tp,1 # 1 <__start-0x7fffffff>
800001c0:	00200293          	li	t0,2
800001c4:	fe5212e3          	bne	tp,t0,800001a8 <label1_test19>
800001c8:	00000e93          	li	t4,0
800001cc:	0bd31663          	bne	t1,t4,80000278 <fail>

800001d0 <test20>:
800001d0:	01400593          	li	a1,20
800001d4:	00000213          	li	tp,0

800001d8 <label1_test20>:
800001d8:	00b00093          	li	ra,11
800001dc:	00f0bf13          	sltiu	t5,ra,15
800001e0:	00120213          	addi	tp,tp,1 # 1 <__start-0x7fffffff>
800001e4:	00200293          	li	t0,2
800001e8:	fe5218e3          	bne	tp,t0,800001d8 <label1_test20>
800001ec:	00100e93          	li	t4,1
800001f0:	09df1463          	bne	t5,t4,80000278 <fail>

800001f4 <test21>:
800001f4:	01500593          	li	a1,21
800001f8:	00000213          	li	tp,0

800001fc <label1_test21>:
800001fc:	01100093          	li	ra,17
80000200:	00000013          	nop
80000204:	0080bf13          	sltiu	t5,ra,8
80000208:	00120213          	addi	tp,tp,1 # 1 <__start-0x7fffffff>
8000020c:	00200293          	li	t0,2
80000210:	fe5216e3          	bne	tp,t0,800001fc <label1_test21>
80000214:	00000e93          	li	t4,0
80000218:	07df1063          	bne	t5,t4,80000278 <fail>

8000021c <test22>:
8000021c:	01600593          	li	a1,22
80000220:	00000213          	li	tp,0

80000224 <label1_test22>:
80000224:	00c00093          	li	ra,12
80000228:	00000013          	nop
8000022c:	00000013          	nop
80000230:	00e0bf13          	sltiu	t5,ra,14
80000234:	00120213          	addi	tp,tp,1 # 1 <__start-0x7fffffff>
80000238:	00200293          	li	t0,2
8000023c:	fe5214e3          	bne	tp,t0,80000224 <label1_test22>
80000240:	00100e93          	li	t4,1
80000244:	03df1a63          	bne	t5,t4,80000278 <fail>

80000248 <test23>:
80000248:	01700593          	li	a1,23
8000024c:	fff03093          	sltiu	ra,zero,-1
80000250:	00100e93          	li	t4,1
80000254:	03d09263          	bne	ra,t4,80000278 <fail>

80000258 <test24>:
80000258:	01800593          	li	a1,24
8000025c:	00ff00b7          	lui	ra,0xff0
80000260:	0ff08093          	addi	ra,ra,255 # ff00ff <__start-0x7f00ff01>
80000264:	fff0b013          	sltiu	zero,ra,-1
80000268:	00000e93          	li	t4,0
8000026c:	01d01663          	bne	zero,t4,80000278 <fail>

80000270 <success>:
80000270:	00a00513          	li	a0,10
80000274:	00000073          	ecall

80000278 <fail>:
80000278:	01100513          	li	a0,17
8000027c:	00000073          	ecall
