
sltu.elf:     file format elf32-littleriscv


Disassembly of section .riscv.attributes:

00000000 <.riscv.attributes>:
   0:	1941                	.2byte	0x1941
   2:	0000                	.2byte	0x0
   4:	7200                	.2byte	0x7200
   6:	7369                	.2byte	0x7369
   8:	01007663          	bgeu	zero,a6,14 <__start-0x7fffffec>
   c:	0000000f          	fence	unknown,unknown
  10:	7205                	.2byte	0x7205
  12:	3376                	.2byte	0x3376
  14:	6932                	.2byte	0x6932
  16:	7032                	.2byte	0x7032
  18:	0030                	.2byte	0x30

Disassembly of section .text:

80000000 <__start>:
80000000:	00100593          	li	a1,1
80000004:	00000093          	li	ra,0
80000008:	00000113          	li	sp,0
8000000c:	0020bf33          	sltu	t5,ra,sp
80000010:	00000e93          	li	t4,0
80000014:	4fdf1463          	bne	t5,t4,800004fc <fail>

80000018 <test02>:
80000018:	00200593          	li	a1,2
8000001c:	00100093          	li	ra,1
80000020:	00100113          	li	sp,1
80000024:	0020bf33          	sltu	t5,ra,sp
80000028:	00000e93          	li	t4,0
8000002c:	4ddf1863          	bne	t5,t4,800004fc <fail>

80000030 <test03>:
80000030:	00300593          	li	a1,3
80000034:	00300093          	li	ra,3
80000038:	00700113          	li	sp,7
8000003c:	0020bf33          	sltu	t5,ra,sp
80000040:	00100e93          	li	t4,1
80000044:	4bdf1c63          	bne	t5,t4,800004fc <fail>

80000048 <test04>:
80000048:	00400593          	li	a1,4
8000004c:	00700093          	li	ra,7
80000050:	00300113          	li	sp,3
80000054:	0020bf33          	sltu	t5,ra,sp
80000058:	00000e93          	li	t4,0
8000005c:	4bdf1063          	bne	t5,t4,800004fc <fail>

80000060 <test05>:
80000060:	00500593          	li	a1,5
80000064:	00000093          	li	ra,0
80000068:	ffff8137          	lui	sp,0xffff8
8000006c:	0020bf33          	sltu	t5,ra,sp
80000070:	00100e93          	li	t4,1
80000074:	49df1463          	bne	t5,t4,800004fc <fail>

80000078 <test06>:
80000078:	00600593          	li	a1,6
8000007c:	800000b7          	lui	ra,0x80000
80000080:	00000113          	li	sp,0
80000084:	0020bf33          	sltu	t5,ra,sp
80000088:	00000e93          	li	t4,0
8000008c:	47df1863          	bne	t5,t4,800004fc <fail>

80000090 <test07>:
80000090:	00700593          	li	a1,7
80000094:	800000b7          	lui	ra,0x80000
80000098:	ffff8137          	lui	sp,0xffff8
8000009c:	0020bf33          	sltu	t5,ra,sp
800000a0:	00100e93          	li	t4,1
800000a4:	45df1c63          	bne	t5,t4,800004fc <fail>

800000a8 <test08>:
800000a8:	00800593          	li	a1,8
800000ac:	00000093          	li	ra,0
800000b0:	00008137          	lui	sp,0x8
800000b4:	fff10113          	addi	sp,sp,-1 # 7fff <__start-0x7fff8001>
800000b8:	0020bf33          	sltu	t5,ra,sp
800000bc:	00100e93          	li	t4,1
800000c0:	43df1e63          	bne	t5,t4,800004fc <fail>

800000c4 <test09>:
800000c4:	00900593          	li	a1,9
800000c8:	800000b7          	lui	ra,0x80000
800000cc:	fff08093          	addi	ra,ra,-1 # 7fffffff <_end+0xffffefff>
800000d0:	00000113          	li	sp,0
800000d4:	0020bf33          	sltu	t5,ra,sp
800000d8:	00000e93          	li	t4,0
800000dc:	43df1063          	bne	t5,t4,800004fc <fail>

800000e0 <test10>:
800000e0:	00a00593          	li	a1,10
800000e4:	800000b7          	lui	ra,0x80000
800000e8:	fff08093          	addi	ra,ra,-1 # 7fffffff <_end+0xffffefff>
800000ec:	00008137          	lui	sp,0x8
800000f0:	fff10113          	addi	sp,sp,-1 # 7fff <__start-0x7fff8001>
800000f4:	0020bf33          	sltu	t5,ra,sp
800000f8:	00000e93          	li	t4,0
800000fc:	41df1063          	bne	t5,t4,800004fc <fail>

80000100 <test11>:
80000100:	00b00593          	li	a1,11
80000104:	800000b7          	lui	ra,0x80000
80000108:	00008137          	lui	sp,0x8
8000010c:	fff10113          	addi	sp,sp,-1 # 7fff <__start-0x7fff8001>
80000110:	0020bf33          	sltu	t5,ra,sp
80000114:	00000e93          	li	t4,0
80000118:	3fdf1263          	bne	t5,t4,800004fc <fail>

8000011c <test12>:
8000011c:	00c00593          	li	a1,12
80000120:	800000b7          	lui	ra,0x80000
80000124:	fff08093          	addi	ra,ra,-1 # 7fffffff <_end+0xffffefff>
80000128:	ffff8137          	lui	sp,0xffff8
8000012c:	0020bf33          	sltu	t5,ra,sp
80000130:	00100e93          	li	t4,1
80000134:	3ddf1463          	bne	t5,t4,800004fc <fail>

80000138 <test13>:
80000138:	00d00593          	li	a1,13
8000013c:	00000093          	li	ra,0
80000140:	fff00113          	li	sp,-1
80000144:	0020bf33          	sltu	t5,ra,sp
80000148:	00100e93          	li	t4,1
8000014c:	3bdf1863          	bne	t5,t4,800004fc <fail>

80000150 <test14>:
80000150:	00e00593          	li	a1,14
80000154:	fff00093          	li	ra,-1
80000158:	00100113          	li	sp,1
8000015c:	0020bf33          	sltu	t5,ra,sp
80000160:	00000e93          	li	t4,0
80000164:	39df1c63          	bne	t5,t4,800004fc <fail>

80000168 <test15>:
80000168:	00f00593          	li	a1,15
8000016c:	fff00093          	li	ra,-1
80000170:	fff00113          	li	sp,-1
80000174:	0020bf33          	sltu	t5,ra,sp
80000178:	00000e93          	li	t4,0
8000017c:	39df1063          	bne	t5,t4,800004fc <fail>

80000180 <test16>:
80000180:	01000593          	li	a1,16
80000184:	00e00093          	li	ra,14
80000188:	00d00113          	li	sp,13
8000018c:	0020b0b3          	sltu	ra,ra,sp
80000190:	00000e93          	li	t4,0
80000194:	37d09463          	bne	ra,t4,800004fc <fail>

80000198 <test17>:
80000198:	01100593          	li	a1,17
8000019c:	00b00093          	li	ra,11
800001a0:	00d00113          	li	sp,13
800001a4:	0020b133          	sltu	sp,ra,sp
800001a8:	00100e93          	li	t4,1
800001ac:	35d11863          	bne	sp,t4,800004fc <fail>

800001b0 <test18>:
800001b0:	01200593          	li	a1,18
800001b4:	00d00093          	li	ra,13
800001b8:	0010b0b3          	sltu	ra,ra,ra
800001bc:	00000e93          	li	t4,0
800001c0:	33d09e63          	bne	ra,t4,800004fc <fail>

800001c4 <test19>:
800001c4:	01300593          	li	a1,19
800001c8:	00000213          	li	tp,0

800001cc <label_test19>:
800001cc:	00b00093          	li	ra,11
800001d0:	00d00113          	li	sp,13
800001d4:	0020bf33          	sltu	t5,ra,sp
800001d8:	000f0313          	mv	t1,t5
800001dc:	00120213          	addi	tp,tp,1 # 1 <__start-0x7fffffff>
800001e0:	00200293          	li	t0,2
800001e4:	fe5214e3          	bne	tp,t0,800001cc <label_test19>
800001e8:	00100e93          	li	t4,1
800001ec:	31d31863          	bne	t1,t4,800004fc <fail>

800001f0 <test20>:
800001f0:	01400593          	li	a1,20
800001f4:	00000213          	li	tp,0

800001f8 <label_test20>:
800001f8:	00e00093          	li	ra,14
800001fc:	00d00113          	li	sp,13
80000200:	0020bf33          	sltu	t5,ra,sp
80000204:	00000013          	nop
80000208:	000f0313          	mv	t1,t5
8000020c:	00120213          	addi	tp,tp,1 # 1 <__start-0x7fffffff>
80000210:	00200293          	li	t0,2
80000214:	fe5212e3          	bne	tp,t0,800001f8 <label_test20>
80000218:	00000e93          	li	t4,0
8000021c:	2fd31063          	bne	t1,t4,800004fc <fail>

80000220 <test21>:
80000220:	01500593          	li	a1,21
80000224:	00000213          	li	tp,0

80000228 <label_test21>:
80000228:	00c00093          	li	ra,12
8000022c:	00d00113          	li	sp,13
80000230:	0020bf33          	sltu	t5,ra,sp
80000234:	00000013          	nop
80000238:	00000013          	nop
8000023c:	000f0313          	mv	t1,t5
80000240:	00120213          	addi	tp,tp,1 # 1 <__start-0x7fffffff>
80000244:	00200293          	li	t0,2
80000248:	fe5210e3          	bne	tp,t0,80000228 <label_test21>
8000024c:	00100e93          	li	t4,1
80000250:	2bd31663          	bne	t1,t4,800004fc <fail>

80000254 <test22>:
80000254:	01600593          	li	a1,22
80000258:	00000213          	li	tp,0

8000025c <label_test22>:
8000025c:	00e00093          	li	ra,14
80000260:	00d00113          	li	sp,13
80000264:	0020bf33          	sltu	t5,ra,sp
80000268:	000f0313          	mv	t1,t5
8000026c:	00120213          	addi	tp,tp,1 # 1 <__start-0x7fffffff>
80000270:	00200293          	li	t0,2
80000274:	fe5214e3          	bne	tp,t0,8000025c <label_test22>
80000278:	00000e93          	li	t4,0
8000027c:	29d31063          	bne	t1,t4,800004fc <fail>

80000280 <test23>:
80000280:	01700593          	li	a1,23
80000284:	00000213          	li	tp,0

80000288 <label_test23>:
80000288:	00b00093          	li	ra,11
8000028c:	00d00113          	li	sp,13
80000290:	00000013          	nop
80000294:	0020bf33          	sltu	t5,ra,sp
80000298:	000f0313          	mv	t1,t5
8000029c:	00120213          	addi	tp,tp,1 # 1 <__start-0x7fffffff>
800002a0:	00200293          	li	t0,2
800002a4:	fe5212e3          	bne	tp,t0,80000288 <label_test23>
800002a8:	00100e93          	li	t4,1
800002ac:	25d31863          	bne	t1,t4,800004fc <fail>

800002b0 <test24>:
800002b0:	01800593          	li	a1,24
800002b4:	00000213          	li	tp,0

800002b8 <label_test24>:
800002b8:	00f00093          	li	ra,15
800002bc:	00d00113          	li	sp,13
800002c0:	00000013          	nop
800002c4:	00000013          	nop
800002c8:	0020bf33          	sltu	t5,ra,sp
800002cc:	000f0313          	mv	t1,t5
800002d0:	00120213          	addi	tp,tp,1 # 1 <__start-0x7fffffff>
800002d4:	00200293          	li	t0,2
800002d8:	fe5210e3          	bne	tp,t0,800002b8 <label_test24>
800002dc:	00000e93          	li	t4,0
800002e0:	21d31e63          	bne	t1,t4,800004fc <fail>

800002e4 <test25>:
800002e4:	01900593          	li	a1,25
800002e8:	00000213          	li	tp,0

800002ec <label_test25>:
800002ec:	00a00093          	li	ra,10
800002f0:	00000013          	nop
800002f4:	00d00113          	li	sp,13
800002f8:	0020bf33          	sltu	t5,ra,sp
800002fc:	000f0313          	mv	t1,t5
80000300:	00120213          	addi	tp,tp,1 # 1 <__start-0x7fffffff>
80000304:	00200293          	li	t0,2
80000308:	fe5212e3          	bne	tp,t0,800002ec <label_test25>
8000030c:	00100e93          	li	t4,1
80000310:	1fd31663          	bne	t1,t4,800004fc <fail>

80000314 <test26>:
80000314:	01a00593          	li	a1,26
80000318:	00000213          	li	tp,0

8000031c <label_test26>:
8000031c:	01000093          	li	ra,16
80000320:	00000013          	nop
80000324:	00d00113          	li	sp,13
80000328:	00000013          	nop
8000032c:	0020bf33          	sltu	t5,ra,sp
80000330:	000f0313          	mv	t1,t5
80000334:	00120213          	addi	tp,tp,1 # 1 <__start-0x7fffffff>
80000338:	00200293          	li	t0,2
8000033c:	fe5210e3          	bne	tp,t0,8000031c <label_test26>
80000340:	00000e93          	li	t4,0
80000344:	1bd31c63          	bne	t1,t4,800004fc <fail>

80000348 <test27>:
80000348:	01b00593          	li	a1,27
8000034c:	00000213          	li	tp,0

80000350 <label_test27>:
80000350:	00900093          	li	ra,9
80000354:	00000013          	nop
80000358:	00000013          	nop
8000035c:	00d00113          	li	sp,13
80000360:	0020bf33          	sltu	t5,ra,sp
80000364:	000f0313          	mv	t1,t5
80000368:	00120213          	addi	tp,tp,1 # 1 <__start-0x7fffffff>
8000036c:	00200293          	li	t0,2
80000370:	fe5210e3          	bne	tp,t0,80000350 <label_test27>
80000374:	00100e93          	li	t4,1
80000378:	19d31263          	bne	t1,t4,800004fc <fail>

8000037c <test28>:
8000037c:	01c00593          	li	a1,28
80000380:	00000213          	li	tp,0

80000384 <label_test28>:
80000384:	00d00113          	li	sp,13
80000388:	01100093          	li	ra,17
8000038c:	0020bf33          	sltu	t5,ra,sp
80000390:	000f0313          	mv	t1,t5
80000394:	00120213          	addi	tp,tp,1 # 1 <__start-0x7fffffff>
80000398:	00200293          	li	t0,2
8000039c:	fe5214e3          	bne	tp,t0,80000384 <label_test28>
800003a0:	00000e93          	li	t4,0
800003a4:	15d31c63          	bne	t1,t4,800004fc <fail>

800003a8 <test29>:
800003a8:	01d00593          	li	a1,29
800003ac:	00000213          	li	tp,0

800003b0 <label_test29>:
800003b0:	00d00113          	li	sp,13
800003b4:	00000013          	nop
800003b8:	00800093          	li	ra,8
800003bc:	0020bf33          	sltu	t5,ra,sp
800003c0:	000f0313          	mv	t1,t5
800003c4:	00120213          	addi	tp,tp,1 # 1 <__start-0x7fffffff>
800003c8:	00200293          	li	t0,2
800003cc:	fe5212e3          	bne	tp,t0,800003b0 <label_test29>
800003d0:	00100e93          	li	t4,1
800003d4:	13d31463          	bne	t1,t4,800004fc <fail>

800003d8 <test30>:
800003d8:	01e00593          	li	a1,30
800003dc:	00000213          	li	tp,0

800003e0 <label_test30>:
800003e0:	00d00113          	li	sp,13
800003e4:	00000013          	nop
800003e8:	00000013          	nop
800003ec:	01200093          	li	ra,18
800003f0:	0020bf33          	sltu	t5,ra,sp
800003f4:	000f0313          	mv	t1,t5
800003f8:	00120213          	addi	tp,tp,1 # 1 <__start-0x7fffffff>
800003fc:	00200293          	li	t0,2
80000400:	fe5210e3          	bne	tp,t0,800003e0 <label_test30>
80000404:	00000e93          	li	t4,0
80000408:	0fd31a63          	bne	t1,t4,800004fc <fail>

8000040c <test31>:
8000040c:	01f00593          	li	a1,31
80000410:	00000213          	li	tp,0

80000414 <label_test31>:
80000414:	00d00113          	li	sp,13
80000418:	00700093          	li	ra,7
8000041c:	00000013          	nop
80000420:	0020bf33          	sltu	t5,ra,sp
80000424:	000f0313          	mv	t1,t5
80000428:	00120213          	addi	tp,tp,1 # 1 <__start-0x7fffffff>
8000042c:	00200293          	li	t0,2
80000430:	fe5212e3          	bne	tp,t0,80000414 <label_test31>
80000434:	00100e93          	li	t4,1
80000438:	0dd31263          	bne	t1,t4,800004fc <fail>

8000043c <test32>:
8000043c:	02000593          	li	a1,32
80000440:	00000213          	li	tp,0

80000444 <label_test32>:
80000444:	00d00113          	li	sp,13
80000448:	00000013          	nop
8000044c:	01300093          	li	ra,19
80000450:	00000013          	nop
80000454:	0020bf33          	sltu	t5,ra,sp
80000458:	000f0313          	mv	t1,t5
8000045c:	00120213          	addi	tp,tp,1 # 1 <__start-0x7fffffff>
80000460:	00200293          	li	t0,2
80000464:	fe5210e3          	bne	tp,t0,80000444 <label_test32>
80000468:	00000e93          	li	t4,0
8000046c:	09d31863          	bne	t1,t4,800004fc <fail>

80000470 <test33>:
80000470:	02100593          	li	a1,33
80000474:	00000213          	li	tp,0

80000478 <label_test33>:
80000478:	00d00113          	li	sp,13
8000047c:	00600093          	li	ra,6
80000480:	00000013          	nop
80000484:	00000013          	nop
80000488:	0020bf33          	sltu	t5,ra,sp
8000048c:	000f0313          	mv	t1,t5
80000490:	00120213          	addi	tp,tp,1 # 1 <__start-0x7fffffff>
80000494:	00200293          	li	t0,2
80000498:	fe5210e3          	bne	tp,t0,80000478 <label_test33>
8000049c:	00100e93          	li	t4,1
800004a0:	05d31e63          	bne	t1,t4,800004fc <fail>

800004a4 <test34>:
800004a4:	02200593          	li	a1,34
800004a8:	fff00093          	li	ra,-1
800004ac:	00103133          	snez	sp,ra
800004b0:	00100e93          	li	t4,1
800004b4:	05d11463          	bne	sp,t4,800004fc <fail>

800004b8 <test35>:
800004b8:	02300593          	li	a1,35
800004bc:	fff00093          	li	ra,-1
800004c0:	0000b133          	sltu	sp,ra,zero
800004c4:	00000e93          	li	t4,0
800004c8:	03d11a63          	bne	sp,t4,800004fc <fail>

800004cc <test36>:
800004cc:	02400593          	li	a1,36
800004d0:	000030b3          	snez	ra,zero
800004d4:	00000e93          	li	t4,0
800004d8:	03d09263          	bne	ra,t4,800004fc <fail>

800004dc <test37>:
800004dc:	02500593          	li	a1,37
800004e0:	01000093          	li	ra,16
800004e4:	01e00113          	li	sp,30
800004e8:	0020b033          	sltu	zero,ra,sp
800004ec:	00000e93          	li	t4,0
800004f0:	01d01663          	bne	zero,t4,800004fc <fail>

800004f4 <success>:
800004f4:	00a00513          	li	a0,10
800004f8:	00000073          	ecall

800004fc <fail>:
800004fc:	01100513          	li	a0,17
80000500:	00000073          	ecall
