
srai.elf:     file format elf32-littleriscv


Disassembly of section .text:

00400000 <__start>:
  400000:	00100593          	li	a1,1
  400004:	00000093          	li	ra,0
  400008:	4000df13          	srai	t5,ra,0x0
  40000c:	00000e93          	li	t4,0
  400010:	2bdf1663          	bne	t5,t4,4002bc <fail>

00400014 <test02>:
  400014:	00200593          	li	a1,2
  400018:	800000b7          	lui	ra,0x80000
  40001c:	4010df13          	srai	t5,ra,0x1
  400020:	c0000eb7          	lui	t4,0xc0000
  400024:	29df1c63          	bne	t5,t4,4002bc <fail>

00400028 <test03>:
  400028:	00300593          	li	a1,3
  40002c:	800000b7          	lui	ra,0x80000
  400030:	4070df13          	srai	t5,ra,0x7
  400034:	ff000eb7          	lui	t4,0xff000
  400038:	29df1263          	bne	t5,t4,4002bc <fail>

0040003c <test04>:
  40003c:	00400593          	li	a1,4
  400040:	800000b7          	lui	ra,0x80000
  400044:	40e0df13          	srai	t5,ra,0xe
  400048:	fffe0eb7          	lui	t4,0xfffe0
  40004c:	27df1863          	bne	t5,t4,4002bc <fail>

00400050 <test05>:
  400050:	00500593          	li	a1,5
  400054:	800000b7          	lui	ra,0x80000
  400058:	00108093          	addi	ra,ra,1 # 80000001 <_end+0x7fbff001>
  40005c:	41f0df13          	srai	t5,ra,0x1f
  400060:	fff00e93          	li	t4,-1
  400064:	25df1c63          	bne	t5,t4,4002bc <fail>

00400068 <test06>:
  400068:	00600593          	li	a1,6
  40006c:	800000b7          	lui	ra,0x80000
  400070:	fff08093          	addi	ra,ra,-1 # 7fffffff <_end+0x7fbfefff>
  400074:	4000df13          	srai	t5,ra,0x0
  400078:	80000eb7          	lui	t4,0x80000
  40007c:	fffe8e93          	addi	t4,t4,-1 # 7fffffff <_end+0x7fbfefff>
  400080:	23df1e63          	bne	t5,t4,4002bc <fail>

00400084 <test07>:
  400084:	00700593          	li	a1,7
  400088:	800000b7          	lui	ra,0x80000
  40008c:	fff08093          	addi	ra,ra,-1 # 7fffffff <_end+0x7fbfefff>
  400090:	4010df13          	srai	t5,ra,0x1
  400094:	40000eb7          	lui	t4,0x40000
  400098:	fffe8e93          	addi	t4,t4,-1 # 3fffffff <_end+0x3fbfefff>
  40009c:	23df1063          	bne	t5,t4,4002bc <fail>

004000a0 <test08>:
  4000a0:	00800593          	li	a1,8
  4000a4:	800000b7          	lui	ra,0x80000
  4000a8:	fff08093          	addi	ra,ra,-1 # 7fffffff <_end+0x7fbfefff>
  4000ac:	4070df13          	srai	t5,ra,0x7
  4000b0:	01000eb7          	lui	t4,0x1000
  4000b4:	fffe8e93          	addi	t4,t4,-1 # ffffff <_end+0xbfefff>
  4000b8:	21df1263          	bne	t5,t4,4002bc <fail>

004000bc <test09>:
  4000bc:	00900593          	li	a1,9
  4000c0:	800000b7          	lui	ra,0x80000
  4000c4:	fff08093          	addi	ra,ra,-1 # 7fffffff <_end+0x7fbfefff>
  4000c8:	40e0df13          	srai	t5,ra,0xe
  4000cc:	00020eb7          	lui	t4,0x20
  4000d0:	fffe8e93          	addi	t4,t4,-1 # 1ffff <__start-0x3e0001>
  4000d4:	1fdf1463          	bne	t5,t4,4002bc <fail>

004000d8 <test10>:
  4000d8:	00a00593          	li	a1,10
  4000dc:	800000b7          	lui	ra,0x80000
  4000e0:	fff08093          	addi	ra,ra,-1 # 7fffffff <_end+0x7fbfefff>
  4000e4:	41f0df13          	srai	t5,ra,0x1f
  4000e8:	00000e93          	li	t4,0
  4000ec:	1ddf1863          	bne	t5,t4,4002bc <fail>

004000f0 <test11>:
  4000f0:	00b00593          	li	a1,11
  4000f4:	818180b7          	lui	ra,0x81818
  4000f8:	18108093          	addi	ra,ra,385 # 81818181 <_end+0x81417181>
  4000fc:	4000df13          	srai	t5,ra,0x0
  400100:	81818eb7          	lui	t4,0x81818
  400104:	181e8e93          	addi	t4,t4,385 # 81818181 <_end+0x81417181>
  400108:	1bdf1a63          	bne	t5,t4,4002bc <fail>

0040010c <test12>:
  40010c:	00c00593          	li	a1,12
  400110:	818180b7          	lui	ra,0x81818
  400114:	18108093          	addi	ra,ra,385 # 81818181 <_end+0x81417181>
  400118:	4010df13          	srai	t5,ra,0x1
  40011c:	c0c0ceb7          	lui	t4,0xc0c0c
  400120:	0c0e8e93          	addi	t4,t4,192 # c0c0c0c0 <_end+0xc080b0c0>
  400124:	19df1c63          	bne	t5,t4,4002bc <fail>

00400128 <test13>:
  400128:	00d00593          	li	a1,13
  40012c:	818180b7          	lui	ra,0x81818
  400130:	18108093          	addi	ra,ra,385 # 81818181 <_end+0x81417181>
  400134:	4070df13          	srai	t5,ra,0x7
  400138:	ff030eb7          	lui	t4,0xff030
  40013c:	303e8e93          	addi	t4,t4,771 # ff030303 <_end+0xfec2f303>
  400140:	17df1e63          	bne	t5,t4,4002bc <fail>

00400144 <test14>:
  400144:	00e00593          	li	a1,14
  400148:	818180b7          	lui	ra,0x81818
  40014c:	18108093          	addi	ra,ra,385 # 81818181 <_end+0x81417181>
  400150:	40e0df13          	srai	t5,ra,0xe
  400154:	fffe0eb7          	lui	t4,0xfffe0
  400158:	606e8e93          	addi	t4,t4,1542 # fffe0606 <_end+0xffbdf606>
  40015c:	17df1063          	bne	t5,t4,4002bc <fail>

00400160 <test15>:
  400160:	00f00593          	li	a1,15
  400164:	818180b7          	lui	ra,0x81818
  400168:	18108093          	addi	ra,ra,385 # 81818181 <_end+0x81417181>
  40016c:	41f0df13          	srai	t5,ra,0x1f
  400170:	fff00e93          	li	t4,-1
  400174:	15df1463          	bne	t5,t4,4002bc <fail>

00400178 <test16>:
  400178:	01000593          	li	a1,16
  40017c:	800000b7          	lui	ra,0x80000
  400180:	4070d093          	srai	ra,ra,0x7
  400184:	ff000eb7          	lui	t4,0xff000
  400188:	13d09a63          	bne	ra,t4,4002bc <fail>

0040018c <test17>:
  40018c:	01100593          	li	a1,17
  400190:	00000213          	li	tp,0

00400194 <label1_test17>:
  400194:	800000b7          	lui	ra,0x80000
  400198:	4070df13          	srai	t5,ra,0x7
  40019c:	000f0313          	mv	t1,t5
  4001a0:	00120213          	addi	tp,tp,1 # 1 <__start-0x3fffff>
  4001a4:	00200293          	li	t0,2
  4001a8:	fe5216e3          	bne	tp,t0,400194 <label1_test17>
  4001ac:	ff000eb7          	lui	t4,0xff000
  4001b0:	11d31663          	bne	t1,t4,4002bc <fail>

004001b4 <test18>:
  4001b4:	01200593          	li	a1,18
  4001b8:	00000213          	li	tp,0

004001bc <label1_test18>:
  4001bc:	800000b7          	lui	ra,0x80000
  4001c0:	40e0df13          	srai	t5,ra,0xe
  4001c4:	00000013          	nop
  4001c8:	000f0313          	mv	t1,t5
  4001cc:	00120213          	addi	tp,tp,1 # 1 <__start-0x3fffff>
  4001d0:	00200293          	li	t0,2
  4001d4:	fe5214e3          	bne	tp,t0,4001bc <label1_test18>
  4001d8:	fffe0eb7          	lui	t4,0xfffe0
  4001dc:	0fd31063          	bne	t1,t4,4002bc <fail>

004001e0 <test19>:
  4001e0:	01300593          	li	a1,19
  4001e4:	00000213          	li	tp,0

004001e8 <label1_test19>:
  4001e8:	800000b7          	lui	ra,0x80000
  4001ec:	00108093          	addi	ra,ra,1 # 80000001 <_end+0x7fbff001>
  4001f0:	41f0df13          	srai	t5,ra,0x1f
  4001f4:	00000013          	nop
  4001f8:	00000013          	nop
  4001fc:	000f0313          	mv	t1,t5
  400200:	00120213          	addi	tp,tp,1 # 1 <__start-0x3fffff>
  400204:	00200293          	li	t0,2
  400208:	fe5210e3          	bne	tp,t0,4001e8 <label1_test19>
  40020c:	fff00e93          	li	t4,-1
  400210:	0bd31663          	bne	t1,t4,4002bc <fail>

00400214 <test20>:
  400214:	01400593          	li	a1,20
  400218:	00000213          	li	tp,0

0040021c <label1_test20>:
  40021c:	800000b7          	lui	ra,0x80000
  400220:	4070df13          	srai	t5,ra,0x7
  400224:	00120213          	addi	tp,tp,1 # 1 <__start-0x3fffff>
  400228:	00200293          	li	t0,2
  40022c:	fe5218e3          	bne	tp,t0,40021c <label1_test20>
  400230:	ff000eb7          	lui	t4,0xff000
  400234:	09df1463          	bne	t5,t4,4002bc <fail>

00400238 <test21>:
  400238:	01500593          	li	a1,21
  40023c:	00000213          	li	tp,0

00400240 <label1_test21>:
  400240:	800000b7          	lui	ra,0x80000
  400244:	00000013          	nop
  400248:	40e0df13          	srai	t5,ra,0xe
  40024c:	00120213          	addi	tp,tp,1 # 1 <__start-0x3fffff>
  400250:	00200293          	li	t0,2
  400254:	fe5216e3          	bne	tp,t0,400240 <label1_test21>
  400258:	fffe0eb7          	lui	t4,0xfffe0
  40025c:	07df1063          	bne	t5,t4,4002bc <fail>

00400260 <test22>:
  400260:	01600593          	li	a1,22
  400264:	00000213          	li	tp,0

00400268 <label1_test22>:
  400268:	800000b7          	lui	ra,0x80000
  40026c:	00108093          	addi	ra,ra,1 # 80000001 <_end+0x7fbff001>
  400270:	00000013          	nop
  400274:	00000013          	nop
  400278:	41f0df13          	srai	t5,ra,0x1f
  40027c:	00120213          	addi	tp,tp,1 # 1 <__start-0x3fffff>
  400280:	00200293          	li	t0,2
  400284:	fe5212e3          	bne	tp,t0,400268 <label1_test22>
  400288:	fff00e93          	li	t4,-1
  40028c:	03df1863          	bne	t5,t4,4002bc <fail>

00400290 <test23>:
  400290:	01700593          	li	a1,23
  400294:	40405093          	srai	ra,zero,0x4
  400298:	00000e93          	li	t4,0
  40029c:	03d09063          	bne	ra,t4,4002bc <fail>

004002a0 <test24>:
  4002a0:	01800593          	li	a1,24
  4002a4:	02100093          	li	ra,33
  4002a8:	40a0d013          	srai	zero,ra,0xa
  4002ac:	00000e93          	li	t4,0
  4002b0:	01d01663          	bne	zero,t4,4002bc <fail>

004002b4 <success>:
  4002b4:	00a00513          	li	a0,10
  4002b8:	00000073          	ecall

004002bc <fail>:
  4002bc:	01100513          	li	a0,17
  4002c0:	00000073          	ecall
