
srli.elf:     file format elf32-littleriscv


Disassembly of section .riscv.attributes:

00000000 <.riscv.attributes>:
   0:	1941                	.2byte	0x1941
   2:	0000                	.2byte	0x0
   4:	7200                	.2byte	0x7200
   6:	7369                	.2byte	0x7369
   8:	01007663          	bgeu	zero,a6,14 <__start-0x7fffffec>
   c:	0000000f          	fence	unknown,unknown
  10:	7205                	.2byte	0x7205
  12:	3376                	.2byte	0x3376
  14:	6932                	.2byte	0x6932
  16:	7032                	.2byte	0x7032
  18:	0030                	.2byte	0x30

Disassembly of section .text:

80000000 <__start>:
80000000:	00100593          	li	a1,1
80000004:	800000b7          	lui	ra,0x80000
80000008:	0000df13          	srli	t5,ra,0x0
8000000c:	80000eb7          	lui	t4,0x80000
80000010:	29df1a63          	bne	t5,t4,800002a4 <fail>

80000014 <test02>:
80000014:	00200593          	li	a1,2
80000018:	800000b7          	lui	ra,0x80000
8000001c:	0010df13          	srli	t5,ra,0x1
80000020:	40000eb7          	lui	t4,0x40000
80000024:	29df1063          	bne	t5,t4,800002a4 <fail>

80000028 <test03>:
80000028:	00300593          	li	a1,3
8000002c:	800000b7          	lui	ra,0x80000
80000030:	0070df13          	srli	t5,ra,0x7
80000034:	01000eb7          	lui	t4,0x1000
80000038:	27df1663          	bne	t5,t4,800002a4 <fail>

8000003c <test04>:
8000003c:	00400593          	li	a1,4
80000040:	800000b7          	lui	ra,0x80000
80000044:	00e0df13          	srli	t5,ra,0xe
80000048:	00020eb7          	lui	t4,0x20
8000004c:	25df1c63          	bne	t5,t4,800002a4 <fail>

80000050 <test05>:
80000050:	00500593          	li	a1,5
80000054:	800000b7          	lui	ra,0x80000
80000058:	00108093          	addi	ra,ra,1 # 80000001 <_end+0xfffff001>
8000005c:	01f0df13          	srli	t5,ra,0x1f
80000060:	00100e93          	li	t4,1
80000064:	25df1063          	bne	t5,t4,800002a4 <fail>

80000068 <test06>:
80000068:	00600593          	li	a1,6
8000006c:	fff00093          	li	ra,-1
80000070:	0000df13          	srli	t5,ra,0x0
80000074:	fff00e93          	li	t4,-1
80000078:	23df1663          	bne	t5,t4,800002a4 <fail>

8000007c <test07>:
8000007c:	00700593          	li	a1,7
80000080:	fff00093          	li	ra,-1
80000084:	0010df13          	srli	t5,ra,0x1
80000088:	80000eb7          	lui	t4,0x80000
8000008c:	fffe8e93          	addi	t4,t4,-1 # 7fffffff <_end+0xffffefff>
80000090:	21df1a63          	bne	t5,t4,800002a4 <fail>

80000094 <test08>:
80000094:	00800593          	li	a1,8
80000098:	fff00093          	li	ra,-1
8000009c:	0070df13          	srli	t5,ra,0x7
800000a0:	02000eb7          	lui	t4,0x2000
800000a4:	fffe8e93          	addi	t4,t4,-1 # 1ffffff <__start-0x7e000001>
800000a8:	1fdf1e63          	bne	t5,t4,800002a4 <fail>

800000ac <test09>:
800000ac:	00900593          	li	a1,9
800000b0:	fff00093          	li	ra,-1
800000b4:	00e0df13          	srli	t5,ra,0xe
800000b8:	00040eb7          	lui	t4,0x40
800000bc:	fffe8e93          	addi	t4,t4,-1 # 3ffff <__start-0x7ffc0001>
800000c0:	1fdf1263          	bne	t5,t4,800002a4 <fail>

800000c4 <test10>:
800000c4:	00a00593          	li	a1,10
800000c8:	fff00093          	li	ra,-1
800000cc:	01f0df13          	srli	t5,ra,0x1f
800000d0:	00100e93          	li	t4,1
800000d4:	1ddf1863          	bne	t5,t4,800002a4 <fail>

800000d8 <test11>:
800000d8:	00b00593          	li	a1,11
800000dc:	212120b7          	lui	ra,0x21212
800000e0:	12108093          	addi	ra,ra,289 # 21212121 <__start-0x5edededf>
800000e4:	0000df13          	srli	t5,ra,0x0
800000e8:	21212eb7          	lui	t4,0x21212
800000ec:	121e8e93          	addi	t4,t4,289 # 21212121 <__start-0x5edededf>
800000f0:	1bdf1a63          	bne	t5,t4,800002a4 <fail>

800000f4 <test12>:
800000f4:	00c00593          	li	a1,12
800000f8:	212120b7          	lui	ra,0x21212
800000fc:	12108093          	addi	ra,ra,289 # 21212121 <__start-0x5edededf>
80000100:	0010df13          	srli	t5,ra,0x1
80000104:	10909eb7          	lui	t4,0x10909
80000108:	090e8e93          	addi	t4,t4,144 # 10909090 <__start-0x6f6f6f70>
8000010c:	19df1c63          	bne	t5,t4,800002a4 <fail>

80000110 <test13>:
80000110:	00d00593          	li	a1,13
80000114:	212120b7          	lui	ra,0x21212
80000118:	12108093          	addi	ra,ra,289 # 21212121 <__start-0x5edededf>
8000011c:	0070df13          	srli	t5,ra,0x7
80000120:	00424eb7          	lui	t4,0x424
80000124:	242e8e93          	addi	t4,t4,578 # 424242 <__start-0x7fbdbdbe>
80000128:	17df1e63          	bne	t5,t4,800002a4 <fail>

8000012c <test14>:
8000012c:	00e00593          	li	a1,14
80000130:	212120b7          	lui	ra,0x21212
80000134:	12108093          	addi	ra,ra,289 # 21212121 <__start-0x5edededf>
80000138:	00e0df13          	srli	t5,ra,0xe
8000013c:	00008eb7          	lui	t4,0x8
80000140:	484e8e93          	addi	t4,t4,1156 # 8484 <__start-0x7fff7b7c>
80000144:	17df1063          	bne	t5,t4,800002a4 <fail>

80000148 <test15>:
80000148:	00f00593          	li	a1,15
8000014c:	212120b7          	lui	ra,0x21212
80000150:	12108093          	addi	ra,ra,289 # 21212121 <__start-0x5edededf>
80000154:	01f0df13          	srli	t5,ra,0x1f
80000158:	00000e93          	li	t4,0
8000015c:	15df1463          	bne	t5,t4,800002a4 <fail>

80000160 <test16>:
80000160:	01000593          	li	a1,16
80000164:	800000b7          	lui	ra,0x80000
80000168:	0070d093          	srli	ra,ra,0x7
8000016c:	01000eb7          	lui	t4,0x1000
80000170:	13d09a63          	bne	ra,t4,800002a4 <fail>

80000174 <test17>:
80000174:	01100593          	li	a1,17
80000178:	00000213          	li	tp,0

8000017c <label1_test17>:
8000017c:	800000b7          	lui	ra,0x80000
80000180:	0070df13          	srli	t5,ra,0x7
80000184:	000f0313          	mv	t1,t5
80000188:	00120213          	addi	tp,tp,1 # 1 <__start-0x7fffffff>
8000018c:	00200293          	li	t0,2
80000190:	fe5216e3          	bne	tp,t0,8000017c <label1_test17>
80000194:	01000eb7          	lui	t4,0x1000
80000198:	11d31663          	bne	t1,t4,800002a4 <fail>

8000019c <test18>:
8000019c:	01200593          	li	a1,18
800001a0:	00000213          	li	tp,0

800001a4 <label1_test18>:
800001a4:	800000b7          	lui	ra,0x80000
800001a8:	00e0df13          	srli	t5,ra,0xe
800001ac:	00000013          	nop
800001b0:	000f0313          	mv	t1,t5
800001b4:	00120213          	addi	tp,tp,1 # 1 <__start-0x7fffffff>
800001b8:	00200293          	li	t0,2
800001bc:	fe5214e3          	bne	tp,t0,800001a4 <label1_test18>
800001c0:	00020eb7          	lui	t4,0x20
800001c4:	0fd31063          	bne	t1,t4,800002a4 <fail>

800001c8 <test19>:
800001c8:	01300593          	li	a1,19
800001cc:	00000213          	li	tp,0

800001d0 <label1_test19>:
800001d0:	800000b7          	lui	ra,0x80000
800001d4:	00108093          	addi	ra,ra,1 # 80000001 <_end+0xfffff001>
800001d8:	01f0df13          	srli	t5,ra,0x1f
800001dc:	00000013          	nop
800001e0:	00000013          	nop
800001e4:	000f0313          	mv	t1,t5
800001e8:	00120213          	addi	tp,tp,1 # 1 <__start-0x7fffffff>
800001ec:	00200293          	li	t0,2
800001f0:	fe5210e3          	bne	tp,t0,800001d0 <label1_test19>
800001f4:	00100e93          	li	t4,1
800001f8:	0bd31663          	bne	t1,t4,800002a4 <fail>

800001fc <test20>:
800001fc:	01400593          	li	a1,20
80000200:	00000213          	li	tp,0

80000204 <label1_test20>:
80000204:	800000b7          	lui	ra,0x80000
80000208:	0070df13          	srli	t5,ra,0x7
8000020c:	00120213          	addi	tp,tp,1 # 1 <__start-0x7fffffff>
80000210:	00200293          	li	t0,2
80000214:	fe5218e3          	bne	tp,t0,80000204 <label1_test20>
80000218:	01000eb7          	lui	t4,0x1000
8000021c:	09df1463          	bne	t5,t4,800002a4 <fail>

80000220 <test21>:
80000220:	01500593          	li	a1,21
80000224:	00000213          	li	tp,0

80000228 <label1_test21>:
80000228:	800000b7          	lui	ra,0x80000
8000022c:	00000013          	nop
80000230:	00e0df13          	srli	t5,ra,0xe
80000234:	00120213          	addi	tp,tp,1 # 1 <__start-0x7fffffff>
80000238:	00200293          	li	t0,2
8000023c:	fe5216e3          	bne	tp,t0,80000228 <label1_test21>
80000240:	00020eb7          	lui	t4,0x20
80000244:	07df1063          	bne	t5,t4,800002a4 <fail>

80000248 <test22>:
80000248:	01600593          	li	a1,22
8000024c:	00000213          	li	tp,0

80000250 <label1_test22>:
80000250:	800000b7          	lui	ra,0x80000
80000254:	00108093          	addi	ra,ra,1 # 80000001 <_end+0xfffff001>
80000258:	00000013          	nop
8000025c:	00000013          	nop
80000260:	01f0df13          	srli	t5,ra,0x1f
80000264:	00120213          	addi	tp,tp,1 # 1 <__start-0x7fffffff>
80000268:	00200293          	li	t0,2
8000026c:	fe5212e3          	bne	tp,t0,80000250 <label1_test22>
80000270:	00100e93          	li	t4,1
80000274:	03df1863          	bne	t5,t4,800002a4 <fail>

80000278 <test23>:
80000278:	01700593          	li	a1,23
8000027c:	00405093          	srli	ra,zero,0x4
80000280:	00000e93          	li	t4,0
80000284:	03d09063          	bne	ra,t4,800002a4 <fail>

80000288 <test24>:
80000288:	01800593          	li	a1,24
8000028c:	02100093          	li	ra,33
80000290:	00a0d013          	srli	zero,ra,0xa
80000294:	00000e93          	li	t4,0
80000298:	01d01663          	bne	zero,t4,800002a4 <fail>

8000029c <success>:
8000029c:	00a00513          	li	a0,10
800002a0:	00000073          	ecall

800002a4 <fail>:
800002a4:	01100513          	li	a0,17
800002a8:	00000073          	ecall
