
srli.elf:     file format elf32-littleriscv


Disassembly of section .text:

00400000 <__start>:
  400000:	00100593          	li	a1,1
  400004:	800000b7          	lui	ra,0x80000
  400008:	0000df13          	srli	t5,ra,0x0
  40000c:	80000eb7          	lui	t4,0x80000
  400010:	29df1a63          	bne	t5,t4,4002a4 <fail>

00400014 <test02>:
  400014:	00200593          	li	a1,2
  400018:	800000b7          	lui	ra,0x80000
  40001c:	0010df13          	srli	t5,ra,0x1
  400020:	40000eb7          	lui	t4,0x40000
  400024:	29df1063          	bne	t5,t4,4002a4 <fail>

00400028 <test03>:
  400028:	00300593          	li	a1,3
  40002c:	800000b7          	lui	ra,0x80000
  400030:	0070df13          	srli	t5,ra,0x7
  400034:	01000eb7          	lui	t4,0x1000
  400038:	27df1663          	bne	t5,t4,4002a4 <fail>

0040003c <test04>:
  40003c:	00400593          	li	a1,4
  400040:	800000b7          	lui	ra,0x80000
  400044:	00e0df13          	srli	t5,ra,0xe
  400048:	00020eb7          	lui	t4,0x20
  40004c:	25df1c63          	bne	t5,t4,4002a4 <fail>

00400050 <test05>:
  400050:	00500593          	li	a1,5
  400054:	800000b7          	lui	ra,0x80000
  400058:	00108093          	addi	ra,ra,1 # 80000001 <_end+0x7fbff001>
  40005c:	01f0df13          	srli	t5,ra,0x1f
  400060:	00100e93          	li	t4,1
  400064:	25df1063          	bne	t5,t4,4002a4 <fail>

00400068 <test06>:
  400068:	00600593          	li	a1,6
  40006c:	fff00093          	li	ra,-1
  400070:	0000df13          	srli	t5,ra,0x0
  400074:	fff00e93          	li	t4,-1
  400078:	23df1663          	bne	t5,t4,4002a4 <fail>

0040007c <test07>:
  40007c:	00700593          	li	a1,7
  400080:	fff00093          	li	ra,-1
  400084:	0010df13          	srli	t5,ra,0x1
  400088:	80000eb7          	lui	t4,0x80000
  40008c:	fffe8e93          	addi	t4,t4,-1 # 7fffffff <_end+0x7fbfefff>
  400090:	21df1a63          	bne	t5,t4,4002a4 <fail>

00400094 <test08>:
  400094:	00800593          	li	a1,8
  400098:	fff00093          	li	ra,-1
  40009c:	0070df13          	srli	t5,ra,0x7
  4000a0:	02000eb7          	lui	t4,0x2000
  4000a4:	fffe8e93          	addi	t4,t4,-1 # 1ffffff <_end+0x1bfefff>
  4000a8:	1fdf1e63          	bne	t5,t4,4002a4 <fail>

004000ac <test09>:
  4000ac:	00900593          	li	a1,9
  4000b0:	fff00093          	li	ra,-1
  4000b4:	00e0df13          	srli	t5,ra,0xe
  4000b8:	00040eb7          	lui	t4,0x40
  4000bc:	fffe8e93          	addi	t4,t4,-1 # 3ffff <__start-0x3c0001>
  4000c0:	1fdf1263          	bne	t5,t4,4002a4 <fail>

004000c4 <test10>:
  4000c4:	00a00593          	li	a1,10
  4000c8:	fff00093          	li	ra,-1
  4000cc:	01f0df13          	srli	t5,ra,0x1f
  4000d0:	00100e93          	li	t4,1
  4000d4:	1ddf1863          	bne	t5,t4,4002a4 <fail>

004000d8 <test11>:
  4000d8:	00b00593          	li	a1,11
  4000dc:	212120b7          	lui	ra,0x21212
  4000e0:	12108093          	addi	ra,ra,289 # 21212121 <_end+0x20e11121>
  4000e4:	0000df13          	srli	t5,ra,0x0
  4000e8:	21212eb7          	lui	t4,0x21212
  4000ec:	121e8e93          	addi	t4,t4,289 # 21212121 <_end+0x20e11121>
  4000f0:	1bdf1a63          	bne	t5,t4,4002a4 <fail>

004000f4 <test12>:
  4000f4:	00c00593          	li	a1,12
  4000f8:	212120b7          	lui	ra,0x21212
  4000fc:	12108093          	addi	ra,ra,289 # 21212121 <_end+0x20e11121>
  400100:	0010df13          	srli	t5,ra,0x1
  400104:	10909eb7          	lui	t4,0x10909
  400108:	090e8e93          	addi	t4,t4,144 # 10909090 <_end+0x10508090>
  40010c:	19df1c63          	bne	t5,t4,4002a4 <fail>

00400110 <test13>:
  400110:	00d00593          	li	a1,13
  400114:	212120b7          	lui	ra,0x21212
  400118:	12108093          	addi	ra,ra,289 # 21212121 <_end+0x20e11121>
  40011c:	0070df13          	srli	t5,ra,0x7
  400120:	00424eb7          	lui	t4,0x424
  400124:	242e8e93          	addi	t4,t4,578 # 424242 <_end+0x23242>
  400128:	17df1e63          	bne	t5,t4,4002a4 <fail>

0040012c <test14>:
  40012c:	00e00593          	li	a1,14
  400130:	212120b7          	lui	ra,0x21212
  400134:	12108093          	addi	ra,ra,289 # 21212121 <_end+0x20e11121>
  400138:	00e0df13          	srli	t5,ra,0xe
  40013c:	00008eb7          	lui	t4,0x8
  400140:	484e8e93          	addi	t4,t4,1156 # 8484 <__start-0x3f7b7c>
  400144:	17df1063          	bne	t5,t4,4002a4 <fail>

00400148 <test15>:
  400148:	00f00593          	li	a1,15
  40014c:	212120b7          	lui	ra,0x21212
  400150:	12108093          	addi	ra,ra,289 # 21212121 <_end+0x20e11121>
  400154:	01f0df13          	srli	t5,ra,0x1f
  400158:	00000e93          	li	t4,0
  40015c:	15df1463          	bne	t5,t4,4002a4 <fail>

00400160 <test16>:
  400160:	01000593          	li	a1,16
  400164:	800000b7          	lui	ra,0x80000
  400168:	0070d093          	srli	ra,ra,0x7
  40016c:	01000eb7          	lui	t4,0x1000
  400170:	13d09a63          	bne	ra,t4,4002a4 <fail>

00400174 <test17>:
  400174:	01100593          	li	a1,17
  400178:	00000213          	li	tp,0

0040017c <label1_test17>:
  40017c:	800000b7          	lui	ra,0x80000
  400180:	0070df13          	srli	t5,ra,0x7
  400184:	000f0313          	mv	t1,t5
  400188:	00120213          	addi	tp,tp,1 # 1 <__start-0x3fffff>
  40018c:	00200293          	li	t0,2
  400190:	fe5216e3          	bne	tp,t0,40017c <label1_test17>
  400194:	01000eb7          	lui	t4,0x1000
  400198:	11d31663          	bne	t1,t4,4002a4 <fail>

0040019c <test18>:
  40019c:	01200593          	li	a1,18
  4001a0:	00000213          	li	tp,0

004001a4 <label1_test18>:
  4001a4:	800000b7          	lui	ra,0x80000
  4001a8:	00e0df13          	srli	t5,ra,0xe
  4001ac:	00000013          	nop
  4001b0:	000f0313          	mv	t1,t5
  4001b4:	00120213          	addi	tp,tp,1 # 1 <__start-0x3fffff>
  4001b8:	00200293          	li	t0,2
  4001bc:	fe5214e3          	bne	tp,t0,4001a4 <label1_test18>
  4001c0:	00020eb7          	lui	t4,0x20
  4001c4:	0fd31063          	bne	t1,t4,4002a4 <fail>

004001c8 <test19>:
  4001c8:	01300593          	li	a1,19
  4001cc:	00000213          	li	tp,0

004001d0 <label1_test19>:
  4001d0:	800000b7          	lui	ra,0x80000
  4001d4:	00108093          	addi	ra,ra,1 # 80000001 <_end+0x7fbff001>
  4001d8:	01f0df13          	srli	t5,ra,0x1f
  4001dc:	00000013          	nop
  4001e0:	00000013          	nop
  4001e4:	000f0313          	mv	t1,t5
  4001e8:	00120213          	addi	tp,tp,1 # 1 <__start-0x3fffff>
  4001ec:	00200293          	li	t0,2
  4001f0:	fe5210e3          	bne	tp,t0,4001d0 <label1_test19>
  4001f4:	00100e93          	li	t4,1
  4001f8:	0bd31663          	bne	t1,t4,4002a4 <fail>

004001fc <test20>:
  4001fc:	01400593          	li	a1,20
  400200:	00000213          	li	tp,0

00400204 <label1_test20>:
  400204:	800000b7          	lui	ra,0x80000
  400208:	0070df13          	srli	t5,ra,0x7
  40020c:	00120213          	addi	tp,tp,1 # 1 <__start-0x3fffff>
  400210:	00200293          	li	t0,2
  400214:	fe5218e3          	bne	tp,t0,400204 <label1_test20>
  400218:	01000eb7          	lui	t4,0x1000
  40021c:	09df1463          	bne	t5,t4,4002a4 <fail>

00400220 <test21>:
  400220:	01500593          	li	a1,21
  400224:	00000213          	li	tp,0

00400228 <label1_test21>:
  400228:	800000b7          	lui	ra,0x80000
  40022c:	00000013          	nop
  400230:	00e0df13          	srli	t5,ra,0xe
  400234:	00120213          	addi	tp,tp,1 # 1 <__start-0x3fffff>
  400238:	00200293          	li	t0,2
  40023c:	fe5216e3          	bne	tp,t0,400228 <label1_test21>
  400240:	00020eb7          	lui	t4,0x20
  400244:	07df1063          	bne	t5,t4,4002a4 <fail>

00400248 <test22>:
  400248:	01600593          	li	a1,22
  40024c:	00000213          	li	tp,0

00400250 <label1_test22>:
  400250:	800000b7          	lui	ra,0x80000
  400254:	00108093          	addi	ra,ra,1 # 80000001 <_end+0x7fbff001>
  400258:	00000013          	nop
  40025c:	00000013          	nop
  400260:	01f0df13          	srli	t5,ra,0x1f
  400264:	00120213          	addi	tp,tp,1 # 1 <__start-0x3fffff>
  400268:	00200293          	li	t0,2
  40026c:	fe5212e3          	bne	tp,t0,400250 <label1_test22>
  400270:	00100e93          	li	t4,1
  400274:	03df1863          	bne	t5,t4,4002a4 <fail>

00400278 <test23>:
  400278:	01700593          	li	a1,23
  40027c:	00405093          	srli	ra,zero,0x4
  400280:	00000e93          	li	t4,0
  400284:	03d09063          	bne	ra,t4,4002a4 <fail>

00400288 <test24>:
  400288:	01800593          	li	a1,24
  40028c:	02100093          	li	ra,33
  400290:	00a0d013          	srli	zero,ra,0xa
  400294:	00000e93          	li	t4,0
  400298:	01d01663          	bne	zero,t4,4002a4 <fail>

0040029c <success>:
  40029c:	00a00513          	li	a0,10
  4002a0:	00000073          	ecall

004002a4 <fail>:
  4002a4:	01100513          	li	a0,17
  4002a8:	00000073          	ecall
