
sw.elf:     file format elf32-littleriscv


Disassembly of section .text:

00400000 <__start>:
  400000:	00100593          	li	a1,1
  400004:	00001097          	auipc	ra,0x1
  400008:	ffc08093          	addi	ra,ra,-4 # 401000 <tdat>
  40000c:	00aa0137          	lui	sp,0xaa0
  400010:	0aa10113          	addi	sp,sp,170 # aa00aa <_end+0x69e0aa>
  400014:	0020a023          	sw	sp,0(ra)
  400018:	0000af03          	lw	t5,0(ra)
  40001c:	00aa0eb7          	lui	t4,0xaa0
  400020:	0aae8e93          	addi	t4,t4,170 # aa00aa <_end+0x69e0aa>
  400024:	47df1263          	bne	t5,t4,400488 <fail>

00400028 <test02>:
  400028:	00200593          	li	a1,2
  40002c:	00001097          	auipc	ra,0x1
  400030:	fd408093          	addi	ra,ra,-44 # 401000 <tdat>
  400034:	aa00b137          	lui	sp,0xaa00b
  400038:	a0010113          	addi	sp,sp,-1536 # aa00aa00 <_end+0xa9c08a00>
  40003c:	0020a223          	sw	sp,4(ra)
  400040:	0040af03          	lw	t5,4(ra)
  400044:	aa00beb7          	lui	t4,0xaa00b
  400048:	a00e8e93          	addi	t4,t4,-1536 # aa00aa00 <_end+0xa9c08a00>
  40004c:	43df1e63          	bne	t5,t4,400488 <fail>

00400050 <test03>:
  400050:	00300593          	li	a1,3
  400054:	00001097          	auipc	ra,0x1
  400058:	fac08093          	addi	ra,ra,-84 # 401000 <tdat>
  40005c:	0aa01137          	lui	sp,0xaa01
  400060:	aa010113          	addi	sp,sp,-1376 # aa00aa0 <_end+0xa5feaa0>
  400064:	0020a423          	sw	sp,8(ra)
  400068:	0080af03          	lw	t5,8(ra)
  40006c:	0aa01eb7          	lui	t4,0xaa01
  400070:	aa0e8e93          	addi	t4,t4,-1376 # aa00aa0 <_end+0xa5feaa0>
  400074:	41df1a63          	bne	t5,t4,400488 <fail>

00400078 <test04>:
  400078:	00400593          	li	a1,4
  40007c:	00001097          	auipc	ra,0x1
  400080:	f8408093          	addi	ra,ra,-124 # 401000 <tdat>
  400084:	a00aa137          	lui	sp,0xa00aa
  400088:	00a10113          	addi	sp,sp,10 # a00aa00a <_end+0x9fca800a>
  40008c:	0020a623          	sw	sp,12(ra)
  400090:	00c0af03          	lw	t5,12(ra)
  400094:	a00aaeb7          	lui	t4,0xa00aa
  400098:	00ae8e93          	addi	t4,t4,10 # a00aa00a <_end+0x9fca800a>
  40009c:	3fdf1663          	bne	t5,t4,400488 <fail>

004000a0 <test05>:
  4000a0:	00500593          	li	a1,5
  4000a4:	00001097          	auipc	ra,0x1
  4000a8:	f7808093          	addi	ra,ra,-136 # 40101c <tdat8>
  4000ac:	00aa0137          	lui	sp,0xaa0
  4000b0:	0aa10113          	addi	sp,sp,170 # aa00aa <_end+0x69e0aa>
  4000b4:	fe20aa23          	sw	sp,-12(ra)
  4000b8:	ff40af03          	lw	t5,-12(ra)
  4000bc:	00aa0eb7          	lui	t4,0xaa0
  4000c0:	0aae8e93          	addi	t4,t4,170 # aa00aa <_end+0x69e0aa>
  4000c4:	3ddf1263          	bne	t5,t4,400488 <fail>

004000c8 <test06>:
  4000c8:	00600593          	li	a1,6
  4000cc:	00001097          	auipc	ra,0x1
  4000d0:	f5008093          	addi	ra,ra,-176 # 40101c <tdat8>
  4000d4:	aa00b137          	lui	sp,0xaa00b
  4000d8:	a0010113          	addi	sp,sp,-1536 # aa00aa00 <_end+0xa9c08a00>
  4000dc:	fe20ac23          	sw	sp,-8(ra)
  4000e0:	ff80af03          	lw	t5,-8(ra)
  4000e4:	aa00beb7          	lui	t4,0xaa00b
  4000e8:	a00e8e93          	addi	t4,t4,-1536 # aa00aa00 <_end+0xa9c08a00>
  4000ec:	39df1e63          	bne	t5,t4,400488 <fail>

004000f0 <test07>:
  4000f0:	00700593          	li	a1,7
  4000f4:	00001097          	auipc	ra,0x1
  4000f8:	f2808093          	addi	ra,ra,-216 # 40101c <tdat8>
  4000fc:	0aa01137          	lui	sp,0xaa01
  400100:	aa010113          	addi	sp,sp,-1376 # aa00aa0 <_end+0xa5feaa0>
  400104:	fe20ae23          	sw	sp,-4(ra)
  400108:	ffc0af03          	lw	t5,-4(ra)
  40010c:	0aa01eb7          	lui	t4,0xaa01
  400110:	aa0e8e93          	addi	t4,t4,-1376 # aa00aa0 <_end+0xa5feaa0>
  400114:	37df1a63          	bne	t5,t4,400488 <fail>

00400118 <test08>:
  400118:	00800593          	li	a1,8
  40011c:	00001097          	auipc	ra,0x1
  400120:	f0008093          	addi	ra,ra,-256 # 40101c <tdat8>
  400124:	a00aa137          	lui	sp,0xa00aa
  400128:	00a10113          	addi	sp,sp,10 # a00aa00a <_end+0x9fca800a>
  40012c:	0020a023          	sw	sp,0(ra)
  400130:	0000af03          	lw	t5,0(ra)
  400134:	a00aaeb7          	lui	t4,0xa00aa
  400138:	00ae8e93          	addi	t4,t4,10 # a00aa00a <_end+0x9fca800a>
  40013c:	35df1663          	bne	t5,t4,400488 <fail>

00400140 <test09>:
  400140:	00900593          	li	a1,9
  400144:	00001097          	auipc	ra,0x1
  400148:	edc08093          	addi	ra,ra,-292 # 401020 <tdat9>
  40014c:	12345137          	lui	sp,0x12345
  400150:	67810113          	addi	sp,sp,1656 # 12345678 <_end+0x11f43678>
  400154:	fe008213          	addi	tp,ra,-32
  400158:	02222023          	sw	sp,32(tp) # 20 <__start-0x3fffe0>
  40015c:	0000a283          	lw	t0,0(ra)
  400160:	12345eb7          	lui	t4,0x12345
  400164:	678e8e93          	addi	t4,t4,1656 # 12345678 <_end+0x11f43678>
  400168:	33d29063          	bne	t0,t4,400488 <fail>

0040016c <test10>:
  40016c:	00a00593          	li	a1,10
  400170:	00001097          	auipc	ra,0x1
  400174:	eb008093          	addi	ra,ra,-336 # 401020 <tdat9>
  400178:	58213137          	lui	sp,0x58213
  40017c:	09810113          	addi	sp,sp,152 # 58213098 <_end+0x57e11098>
  400180:	ffd08093          	addi	ra,ra,-3
  400184:	0020a3a3          	sw	sp,7(ra)
  400188:	00001217          	auipc	tp,0x1
  40018c:	e9c20213          	addi	tp,tp,-356 # 401024 <tdat10>
  400190:	00022283          	lw	t0,0(tp) # 0 <__start-0x400000>
  400194:	58213eb7          	lui	t4,0x58213
  400198:	098e8e93          	addi	t4,t4,152 # 58213098 <_end+0x57e11098>
  40019c:	2fd29663          	bne	t0,t4,400488 <fail>

004001a0 <test11>:
  4001a0:	00b00593          	li	a1,11
  4001a4:	00000213          	li	tp,0

004001a8 <label1_test11>:
  4001a8:	aabbd0b7          	lui	ra,0xaabbd
  4001ac:	cdd08093          	addi	ra,ra,-803 # aabbccdd <_end+0xaa7bacdd>
  4001b0:	00001117          	auipc	sp,0x1
  4001b4:	e5010113          	addi	sp,sp,-432 # 401000 <tdat>
  4001b8:	00112023          	sw	ra,0(sp)
  4001bc:	00012f03          	lw	t5,0(sp)
  4001c0:	aabbdeb7          	lui	t4,0xaabbd
  4001c4:	cdde8e93          	addi	t4,t4,-803 # aabbccdd <_end+0xaa7bacdd>
  4001c8:	2ddf1063          	bne	t5,t4,400488 <fail>
  4001cc:	00120213          	addi	tp,tp,1 # 1 <__start-0x3fffff>
  4001d0:	00200293          	li	t0,2
  4001d4:	fc521ae3          	bne	tp,t0,4001a8 <label1_test11>

004001d8 <test12>:
  4001d8:	00c00593          	li	a1,12
  4001dc:	00000213          	li	tp,0

004001e0 <label1_test12>:
  4001e0:	daabc0b7          	lui	ra,0xdaabc
  4001e4:	ccd08093          	addi	ra,ra,-819 # daabbccd <_end+0xda6b9ccd>
  4001e8:	00001117          	auipc	sp,0x1
  4001ec:	e1810113          	addi	sp,sp,-488 # 401000 <tdat>
  4001f0:	00000013          	nop
  4001f4:	00112223          	sw	ra,4(sp)
  4001f8:	00412f03          	lw	t5,4(sp)
  4001fc:	daabceb7          	lui	t4,0xdaabc
  400200:	ccde8e93          	addi	t4,t4,-819 # daabbccd <_end+0xda6b9ccd>
  400204:	29df1263          	bne	t5,t4,400488 <fail>
  400208:	00120213          	addi	tp,tp,1 # 1 <__start-0x3fffff>
  40020c:	00200293          	li	t0,2
  400210:	fc5218e3          	bne	tp,t0,4001e0 <label1_test12>

00400214 <test13>:
  400214:	00d00593          	li	a1,13
  400218:	00000213          	li	tp,0

0040021c <label1_test13>:
  40021c:	ddaac0b7          	lui	ra,0xddaac
  400220:	bcc08093          	addi	ra,ra,-1076 # ddaabbcc <_end+0xdd6a9bcc>
  400224:	00001117          	auipc	sp,0x1
  400228:	ddc10113          	addi	sp,sp,-548 # 401000 <tdat>
  40022c:	00000013          	nop
  400230:	00000013          	nop
  400234:	00112423          	sw	ra,8(sp)
  400238:	00812f03          	lw	t5,8(sp)
  40023c:	ddaaceb7          	lui	t4,0xddaac
  400240:	bcce8e93          	addi	t4,t4,-1076 # ddaabbcc <_end+0xdd6a9bcc>
  400244:	25df1263          	bne	t5,t4,400488 <fail>
  400248:	00120213          	addi	tp,tp,1 # 1 <__start-0x3fffff>
  40024c:	00200293          	li	t0,2
  400250:	fc5216e3          	bne	tp,t0,40021c <label1_test13>

00400254 <test14>:
  400254:	00e00593          	li	a1,14
  400258:	00000213          	li	tp,0

0040025c <label1_test14>:
  40025c:	cddab0b7          	lui	ra,0xcddab
  400260:	bbc08093          	addi	ra,ra,-1092 # cddaabbc <_end+0xcd9a8bbc>
  400264:	00000013          	nop
  400268:	00001117          	auipc	sp,0x1
  40026c:	d9810113          	addi	sp,sp,-616 # 401000 <tdat>
  400270:	00112623          	sw	ra,12(sp)
  400274:	00c12f03          	lw	t5,12(sp)
  400278:	cddabeb7          	lui	t4,0xcddab
  40027c:	bbce8e93          	addi	t4,t4,-1092 # cddaabbc <_end+0xcd9a8bbc>
  400280:	21df1463          	bne	t5,t4,400488 <fail>
  400284:	00120213          	addi	tp,tp,1 # 1 <__start-0x3fffff>
  400288:	00200293          	li	t0,2
  40028c:	fc5218e3          	bne	tp,t0,40025c <label1_test14>

00400290 <test15>:
  400290:	00f00593          	li	a1,15
  400294:	00000213          	li	tp,0

00400298 <label1_test15>:
  400298:	ccddb0b7          	lui	ra,0xccddb
  40029c:	abb08093          	addi	ra,ra,-1349 # ccddaabb <_end+0xcc9d8abb>
  4002a0:	00000013          	nop
  4002a4:	00001117          	auipc	sp,0x1
  4002a8:	d5c10113          	addi	sp,sp,-676 # 401000 <tdat>
  4002ac:	00000013          	nop
  4002b0:	00112823          	sw	ra,16(sp)
  4002b4:	01012f03          	lw	t5,16(sp)
  4002b8:	ccddbeb7          	lui	t4,0xccddb
  4002bc:	abbe8e93          	addi	t4,t4,-1349 # ccddaabb <_end+0xcc9d8abb>
  4002c0:	1ddf1463          	bne	t5,t4,400488 <fail>
  4002c4:	00120213          	addi	tp,tp,1 # 1 <__start-0x3fffff>
  4002c8:	00200293          	li	t0,2
  4002cc:	fc5216e3          	bne	tp,t0,400298 <label1_test15>

004002d0 <test16>:
  4002d0:	01000593          	li	a1,16
  4002d4:	00000213          	li	tp,0

004002d8 <label1_test16>:
  4002d8:	bccde0b7          	lui	ra,0xbccde
  4002dc:	aab08093          	addi	ra,ra,-1365 # bccddaab <_end+0xbc8dbaab>
  4002e0:	00000013          	nop
  4002e4:	00000013          	nop
  4002e8:	00001117          	auipc	sp,0x1
  4002ec:	d1810113          	addi	sp,sp,-744 # 401000 <tdat>
  4002f0:	00112a23          	sw	ra,20(sp)
  4002f4:	01412f03          	lw	t5,20(sp)
  4002f8:	bccdeeb7          	lui	t4,0xbccde
  4002fc:	aabe8e93          	addi	t4,t4,-1365 # bccddaab <_end+0xbc8dbaab>
  400300:	19df1463          	bne	t5,t4,400488 <fail>
  400304:	00120213          	addi	tp,tp,1 # 1 <__start-0x3fffff>
  400308:	00200293          	li	t0,2
  40030c:	fc5216e3          	bne	tp,t0,4002d8 <label1_test16>

00400310 <test17>:
  400310:	01100593          	li	a1,17
  400314:	00000213          	li	tp,0

00400318 <label1_test17>:
  400318:	00001117          	auipc	sp,0x1
  40031c:	ce810113          	addi	sp,sp,-792 # 401000 <tdat>
  400320:	001120b7          	lui	ra,0x112
  400324:	23308093          	addi	ra,ra,563 # 112233 <__start-0x2eddcd>
  400328:	00112023          	sw	ra,0(sp)
  40032c:	00012f03          	lw	t5,0(sp)
  400330:	00112eb7          	lui	t4,0x112
  400334:	233e8e93          	addi	t4,t4,563 # 112233 <__start-0x2eddcd>
  400338:	15df1863          	bne	t5,t4,400488 <fail>
  40033c:	00120213          	addi	tp,tp,1 # 1 <__start-0x3fffff>
  400340:	00200293          	li	t0,2
  400344:	fc521ae3          	bne	tp,t0,400318 <label1_test17>

00400348 <test18>:
  400348:	01200593          	li	a1,18
  40034c:	00000213          	li	tp,0

00400350 <label1_test18>:
  400350:	00001117          	auipc	sp,0x1
  400354:	cb010113          	addi	sp,sp,-848 # 401000 <tdat>
  400358:	300110b7          	lui	ra,0x30011
  40035c:	22308093          	addi	ra,ra,547 # 30011223 <_end+0x2fc0f223>
  400360:	00000013          	nop
  400364:	00112223          	sw	ra,4(sp)
  400368:	00412f03          	lw	t5,4(sp)
  40036c:	30011eb7          	lui	t4,0x30011
  400370:	223e8e93          	addi	t4,t4,547 # 30011223 <_end+0x2fc0f223>
  400374:	11df1a63          	bne	t5,t4,400488 <fail>
  400378:	00120213          	addi	tp,tp,1 # 1 <__start-0x3fffff>
  40037c:	00200293          	li	t0,2
  400380:	fc5218e3          	bne	tp,t0,400350 <label1_test18>

00400384 <test19>:
  400384:	01300593          	li	a1,19
  400388:	00000213          	li	tp,0

0040038c <label1_test19>:
  40038c:	00001117          	auipc	sp,0x1
  400390:	c7410113          	addi	sp,sp,-908 # 401000 <tdat>
  400394:	330010b7          	lui	ra,0x33001
  400398:	12208093          	addi	ra,ra,290 # 33001122 <_end+0x32bff122>
  40039c:	00000013          	nop
  4003a0:	00000013          	nop
  4003a4:	00112423          	sw	ra,8(sp)
  4003a8:	00812f03          	lw	t5,8(sp)
  4003ac:	33001eb7          	lui	t4,0x33001
  4003b0:	122e8e93          	addi	t4,t4,290 # 33001122 <_end+0x32bff122>
  4003b4:	0ddf1a63          	bne	t5,t4,400488 <fail>
  4003b8:	00120213          	addi	tp,tp,1 # 1 <__start-0x3fffff>
  4003bc:	00200293          	li	t0,2
  4003c0:	fc5216e3          	bne	tp,t0,40038c <label1_test19>

004003c4 <test20>:
  4003c4:	01400593          	li	a1,20
  4003c8:	00000213          	li	tp,0

004003cc <label1_test20>:
  4003cc:	00001117          	auipc	sp,0x1
  4003d0:	c3410113          	addi	sp,sp,-972 # 401000 <tdat>
  4003d4:	00000013          	nop
  4003d8:	233000b7          	lui	ra,0x23300
  4003dc:	11208093          	addi	ra,ra,274 # 23300112 <_end+0x22efe112>
  4003e0:	00112623          	sw	ra,12(sp)
  4003e4:	00c12f03          	lw	t5,12(sp)
  4003e8:	23300eb7          	lui	t4,0x23300
  4003ec:	112e8e93          	addi	t4,t4,274 # 23300112 <_end+0x22efe112>
  4003f0:	09df1c63          	bne	t5,t4,400488 <fail>
  4003f4:	00120213          	addi	tp,tp,1 # 1 <__start-0x3fffff>
  4003f8:	00200293          	li	t0,2
  4003fc:	fc5218e3          	bne	tp,t0,4003cc <label1_test20>

00400400 <test21>:
  400400:	01500593          	li	a1,21
  400404:	00000213          	li	tp,0

00400408 <label1_test21>:
  400408:	00001117          	auipc	sp,0x1
  40040c:	bf810113          	addi	sp,sp,-1032 # 401000 <tdat>
  400410:	00000013          	nop
  400414:	223300b7          	lui	ra,0x22330
  400418:	01108093          	addi	ra,ra,17 # 22330011 <_end+0x21f2e011>
  40041c:	00000013          	nop
  400420:	00112823          	sw	ra,16(sp)
  400424:	01012f03          	lw	t5,16(sp)
  400428:	22330eb7          	lui	t4,0x22330
  40042c:	011e8e93          	addi	t4,t4,17 # 22330011 <_end+0x21f2e011>
  400430:	05df1c63          	bne	t5,t4,400488 <fail>
  400434:	00120213          	addi	tp,tp,1 # 1 <__start-0x3fffff>
  400438:	00200293          	li	t0,2
  40043c:	fc5216e3          	bne	tp,t0,400408 <label1_test21>

00400440 <test22>:
  400440:	01600593          	li	a1,22
  400444:	00000213          	li	tp,0

00400448 <label1_test22>:
  400448:	00001117          	auipc	sp,0x1
  40044c:	bb810113          	addi	sp,sp,-1096 # 401000 <tdat>
  400450:	00000013          	nop
  400454:	00000013          	nop
  400458:	122330b7          	lui	ra,0x12233
  40045c:	00108093          	addi	ra,ra,1 # 12233001 <_end+0x11e31001>
  400460:	00112a23          	sw	ra,20(sp)
  400464:	01412f03          	lw	t5,20(sp)
  400468:	12233eb7          	lui	t4,0x12233
  40046c:	001e8e93          	addi	t4,t4,1 # 12233001 <_end+0x11e31001>
  400470:	01df1c63          	bne	t5,t4,400488 <fail>
  400474:	00120213          	addi	tp,tp,1 # 1 <__start-0x3fffff>
  400478:	00200293          	li	t0,2
  40047c:	fc5216e3          	bne	tp,t0,400448 <label1_test22>

00400480 <success>:
  400480:	00a00513          	li	a0,10
  400484:	00000073          	ecall

00400488 <fail>:
  400488:	01100513          	li	a0,17
  40048c:	00000073          	ecall
