
trap:     file format elf64-littleriscv


Disassembly of section .tohost:

0000000080001000 <tohost>:
	...

0000000080001008 <fromhost>:
	...

0000000080001010 <begin_signature>:
    80001010:	deadbeef          	jal	t4,7ffdc5fa <MTIME+0x7dfd0602>
    80001014:	deadbeef          	jal	t4,7ffdc5fe <MTIME+0x7dfd0606>
    80001018:	deadbeef          	jal	t4,7ffdc602 <MTIME+0x7dfd060a>
    8000101c:	deadbeef          	jal	t4,7ffdc606 <MTIME+0x7dfd060e>
    80001020:	deadbeef          	jal	t4,7ffdc60a <MTIME+0x7dfd0612>
    80001024:	deadbeef          	jal	t4,7ffdc60e <MTIME+0x7dfd0616>
    80001028:	deadbeef          	jal	t4,7ffdc612 <MTIME+0x7dfd061a>
    8000102c:	deadbeef          	jal	t4,7ffdc616 <MTIME+0x7dfd061e>
    80001030:	deadbeef          	jal	t4,7ffdc61a <MTIME+0x7dfd0622>
    80001034:	deadbeef          	jal	t4,7ffdc61e <MTIME+0x7dfd0626>
    80001038:	deadbeef          	jal	t4,7ffdc622 <MTIME+0x7dfd062a>
    8000103c:	deadbeef          	jal	t4,7ffdc626 <MTIME+0x7dfd062e>

Disassembly of section .text:

0000000080000000 <rvtest_entry_point>:
    80000000:	00002117          	auipc	sp,0x2
    80000004:	20010113          	addi	sp,sp,512 # 80002200 <topofstack>
    80000008:	00001b17          	auipc	s6,0x1
    8000000c:	008b0b13          	addi	s6,s6,8 # 80001010 <begin_signature>
    80000010:	046000ef          	jal	ra,80000056 <set_timecmp>
    80000014:	00000297          	auipc	t0,0x0
    80000018:	05c28293          	addi	t0,t0,92 # 80000070 <trap_handler>
    8000001c:	30529073          	csrw	mtvec,t0
    80000020:	30301073          	csrw	mideleg,zero
    80000024:	30201073          	csrw	medeleg,zero
    80000028:	08000293          	li	t0,128
    8000002c:	30429073          	csrw	mie,t0
    80000030:	00002297          	auipc	t0,0x2
    80000034:	3d028293          	addi	t0,t0,976 # 80002400 <_end>
    80000038:	34029073          	csrw	mscratch,t0
    8000003c:	30046073          	csrsi	mstatus,8

0000000080000040 <main>:
    80000040:	4501                	li	a0,0
    80000042:	00000073          	ecall
    80000046:	6285                	lui	t0,0x1

0000000080000048 <loop>:
    80000048:	12fd                	addi	t0,t0,-1 # fff <XLEN+0xfbf>
    8000004a:	fe029fe3          	bnez	t0,80000048 <loop>

000000008000004e <done>:
    8000004e:	4511                	li	a0,4
    80000050:	00000073          	ecall
    80000054:	a851                	j	800000e8 <self_loop>

0000000080000056 <set_timecmp>:
    80000056:	0200c2b7          	lui	t0,0x200c
    8000005a:	32e1                	addiw	t0,t0,-8 # 200bff8 <MTIME>
    8000005c:	02004337          	lui	t1,0x2004
    80000060:	0002b283          	ld	t0,0(t0)
    80000064:	06028293          	addi	t0,t0,96
    80000068:	00533023          	sd	t0,0(t1) # 2004000 <MTIMECMP>
    8000006c:	8082                	ret
    8000006e:	0001                	nop

0000000080000070 <trap_handler>:
    80000070:	34021273          	csrrw	tp,mscratch,tp
    80000074:	00523023          	sd	t0,0(tp) # 0 <XLEN-0x40>
    80000078:	fe623c23          	sd	t1,-8(tp) # fffffffffffffff8 <_end+0xffffffff7fffdbf8>
    8000007c:	342022f3          	csrr	t0,mcause
    80000080:	34302373          	csrr	t1,mtval
    80000084:	005b3023          	sd	t0,0(s6)
    80000088:	006b3423          	sd	t1,8(s6)
    8000008c:	0b41                	addi	s6,s6,16
    8000008e:	0002d563          	bgez	t0,80000098 <exception>

0000000080000092 <interrupt>:
    80000092:	fc5ff0ef          	jal	ra,80000056 <set_timecmp>
    80000096:	a815                	j	800000ca <trap_return>

0000000080000098 <exception>:
    80000098:	34102373          	csrr	t1,mepc
    8000009c:	0311                	addi	t1,t1,4
    8000009e:	34131073          	csrw	mepc,t1
    800000a2:	4321                	li	t1,8
    800000a4:	0fc2f293          	andi	t0,t0,252
    800000a8:	02629163          	bne	t0,t1,800000ca <trap_return>

00000000800000ac <ecall>:
    800000ac:	4291                	li	t0,4
    800000ae:	02550663          	beq	a0,t0,800000da <write_tohost>
    800000b2:	00556363          	bltu	a0,t0,800000b8 <changeprivilege>
    800000b6:	a811                	j	800000ca <trap_return>

00000000800000b8 <changeprivilege>:
    800000b8:	6289                	lui	t0,0x2
    800000ba:	8002829b          	addiw	t0,t0,-2048 # 1800 <XLEN+0x17c0>
    800000be:	3002b073          	csrc	mstatus,t0
    800000c2:	890d                	andi	a0,a0,3
    800000c4:	052e                	slli	a0,a0,0xb
    800000c6:	30052073          	csrs	mstatus,a0

00000000800000ca <trap_return>:
    800000ca:	ff823303          	ld	t1,-8(tp) # fffffffffffffff8 <_end+0xffffffff7fffdbf8>
    800000ce:	00023283          	ld	t0,0(tp) # 0 <XLEN-0x40>
    800000d2:	34021273          	csrrw	tp,mscratch,tp
    800000d6:	30200073          	mret

00000000800000da <write_tohost>:
    800000da:	00001317          	auipc	t1,0x1
    800000de:	f2630313          	addi	t1,t1,-218 # 80001000 <tohost>
    800000e2:	4285                	li	t0,1
    800000e4:	00533023          	sd	t0,0(t1)

00000000800000e8 <self_loop>:
    800000e8:	a001                	j	800000e8 <self_loop>
	...
